

Microchip MPLAB XC8 Assembler V2.45 build 20230818022343 
                                                                                               Wed Mar 06 13:43:21 2024

Microchip MPLAB XC8 C Compiler v2.45 (Free license) build 20230818022343 Og1 
     1                           	processor	16F877A
     2                           	pagewidth 120
     3                           	opt	flic
     4                           	psect	strings,global,class=STRING,delta=2,noexec
     5                           	psect	cinit,global,class=CODE,merge=1,delta=2
     6                           	psect	bssBANK0,global,class=BANK0,space=1,delta=1,noexec
     7                           	psect	bssBANK1,global,class=BANK1,space=1,delta=1,noexec
     8                           	psect	bssBANK3,global,class=BANK3,space=1,delta=1,noexec
     9                           	psect	clrtext,global,class=CODE,delta=2
    10                           	psect	cstackBANK1,global,class=BANK1,space=1,delta=1,noexec
    11                           	psect	cstackCOMMON,global,class=COMMON,space=1,delta=1,noexec
    12                           	psect	cstackBANK0,global,class=BANK0,space=1,delta=1,noexec
    13                           	psect	maintext,global,class=CODE,split=1,delta=2
    14                           	psect	text1,local,class=CODE,merge=1,delta=2
    15                           	psect	text2,local,class=CODE,merge=1,delta=2
    16                           	psect	text3,local,class=CODE,merge=1,delta=2
    17                           	psect	text4,local,class=CODE,merge=1,delta=2
    18                           	psect	text5,local,class=CODE,merge=1,delta=2,group=3
    19                           	psect	text6,local,class=CODE,merge=1,delta=2,group=1
    20                           	psect	text7,local,class=CODE,merge=1,delta=2,group=1
    21                           	psect	text8,local,class=CODE,merge=1,delta=2,group=3
    22                           	psect	text9,local,class=CODE,merge=1,delta=2,group=3
    23                           	psect	text10,local,class=CODE,merge=1,delta=2
    24                           	psect	text11,local,class=CODE,merge=1,delta=2
    25                           	psect	text12,local,class=CODE,merge=1,delta=2
    26                           	psect	text13,local,class=CODE,merge=1,delta=2
    27                           	psect	text14,local,class=CODE,merge=1,delta=2
    28                           	psect	text15,local,class=CODE,merge=1,delta=2
    29                           	psect	text16,local,class=CODE,merge=1,delta=2
    30                           	psect	text17,local,class=CODE,merge=1,delta=2
    31                           	psect	text18,local,class=CODE,merge=1,delta=2
    32                           	psect	intentry,global,class=CODE,delta=2
    33                           	psect	text19,local,class=CODE,merge=1,delta=2,group=3
    34                           	psect	text20,local,class=CODE,merge=1,delta=2,group=3
    35                           	psect	text21,local,class=CODE,merge=1,delta=2,group=3
    36                           	psect	text22,local,class=CODE,merge=1,delta=2,group=3
    37                           	psect	text23,local,class=CODE,merge=1,delta=2,group=3
    38                           	psect	config,global,abs,ovrld,class=CONFIG,space=4,delta=2,noexec
    39                           	dabs	1,0x7E,2
    40     0000                     
    41                           ; Generated 22/03/2023 GMT
    42                           ; 
    43                           ; Copyright © 2023, Microchip Technology Inc. and its subsidiaries ("Microchip")
    44                           ; All rights reserved.
    45                           ; 
    46                           ; This software is developed by Microchip Technology Inc. and its subsidiaries ("Microch
      +                          ip").
    47                           ; 
    48                           ; Redistribution and use in source and binary forms, with or without modification, are
    49                           ; permitted provided that the following conditions are met:
    50                           ; 
    51                           ;     1. Redistributions of source code must retain the above copyright notice, this lis
      +                          t of
    52                           ;        conditions and the following disclaimer.
    53                           ; 
    54                           ;     2. Redistributions in binary form must reproduce the above copyright notice, this 
      +                          list
    55                           ;        of conditions and the following disclaimer in the documentation and/or other
    56                           ;        materials provided with the distribution. Publication is not required when
    57                           ;        this file is used in an embedded application.
    58                           ; 
    59                           ;     3. Microchip's name may not be used to endorse or promote products derived from th
      +                          is
    60                           ;        software without specific prior written permission.
    61                           ; 
    62                           ; THIS SOFTWARE IS PROVIDED BY MICROCHIP "AS IS" AND ANY EXPRESS OR IMPLIED WARRANTIES,
    63                           ; INCLUDING, BUT NOT LIMITED TO, THE IMPLIED WARRANTIES OF MERCHANTABILITY AND FITNESS F
      +                          OR
    64                           ; PURPOSE ARE DISCLAIMED.  IN NO EVENT SHALL MICROCHIP BE LIABLE FOR ANY DIRECT, INDIREC
      +                          T,
    65                           ; INCIDENTAL, SPECIAL, EXEMPLARY, OR CONSEQUENTIAL DAMAGES (INCLUDING BUT NOT LIMITED TO
    66                           ; PROCUREMENT OF SUBSTITUTE GOODS OR SERVICES; LOSS OF USE, DATA OR PROFITS; OR BUSINESS
    67                           ; INTERRUPTION) HOWSOEVER CAUSED AND ON ANY THEORY OF LIABILITY, WHETHER IN CONTRACT, ST
      +                          RICT
    68                           ; LIABILITY, OR TORT (INCLUDING NEGLIGENCE OR OTHERWISE) ARISING IN ANY WAY OUT OF THE U
      +                          SE OF
    69                           ; THIS SOFTWARE, EVEN IF ADVISED OF THE POSSIBILITY OF SUCH DAMAGE.
    70                           ; 
    71                           ; 
    72                           ; Code-generator required, PIC16F877A Definitions
    73                           ; 
    74                           ; SFR Addresses
    75     0000                     	;# 
    76     0001                     	;# 
    77     0002                     	;# 
    78     0003                     	;# 
    79     0004                     	;# 
    80     0005                     	;# 
    81     0006                     	;# 
    82     0007                     	;# 
    83     0008                     	;# 
    84     0009                     	;# 
    85     000A                     	;# 
    86     000B                     	;# 
    87     000C                     	;# 
    88     000D                     	;# 
    89     000E                     	;# 
    90     000E                     	;# 
    91     000F                     	;# 
    92     0010                     	;# 
    93     0011                     	;# 
    94     0012                     	;# 
    95     0013                     	;# 
    96     0014                     	;# 
    97     0015                     	;# 
    98     0015                     	;# 
    99     0016                     	;# 
   100     0017                     	;# 
   101     0018                     	;# 
   102     0019                     	;# 
   103     001A                     	;# 
   104     001B                     	;# 
   105     001B                     	;# 
   106     001C                     	;# 
   107     001D                     	;# 
   108     001E                     	;# 
   109     001F                     	;# 
   110     0081                     	;# 
   111     0085                     	;# 
   112     0086                     	;# 
   113     0087                     	;# 
   114     0088                     	;# 
   115     0089                     	;# 
   116     008C                     	;# 
   117     008D                     	;# 
   118     008E                     	;# 
   119     0091                     	;# 
   120     0092                     	;# 
   121     0093                     	;# 
   122     0094                     	;# 
   123     0098                     	;# 
   124     0099                     	;# 
   125     009C                     	;# 
   126     009D                     	;# 
   127     009E                     	;# 
   128     009F                     	;# 
   129     010C                     	;# 
   130     010D                     	;# 
   131     010E                     	;# 
   132     010F                     	;# 
   133     018C                     	;# 
   134     018D                     	;# 
   135     0000                     	;# 
   136     0001                     	;# 
   137     0002                     	;# 
   138     0003                     	;# 
   139     0004                     	;# 
   140     0005                     	;# 
   141     0006                     	;# 
   142     0007                     	;# 
   143     0008                     	;# 
   144     0009                     	;# 
   145     000A                     	;# 
   146     000B                     	;# 
   147     000C                     	;# 
   148     000D                     	;# 
   149     000E                     	;# 
   150     000E                     	;# 
   151     000F                     	;# 
   152     0010                     	;# 
   153     0011                     	;# 
   154     0012                     	;# 
   155     0013                     	;# 
   156     0014                     	;# 
   157     0015                     	;# 
   158     0015                     	;# 
   159     0016                     	;# 
   160     0017                     	;# 
   161     0018                     	;# 
   162     0019                     	;# 
   163     001A                     	;# 
   164     001B                     	;# 
   165     001B                     	;# 
   166     001C                     	;# 
   167     001D                     	;# 
   168     001E                     	;# 
   169     001F                     	;# 
   170     0081                     	;# 
   171     0085                     	;# 
   172     0086                     	;# 
   173     0087                     	;# 
   174     0088                     	;# 
   175     0089                     	;# 
   176     008C                     	;# 
   177     008D                     	;# 
   178     008E                     	;# 
   179     0091                     	;# 
   180     0092                     	;# 
   181     0093                     	;# 
   182     0094                     	;# 
   183     0098                     	;# 
   184     0099                     	;# 
   185     009C                     	;# 
   186     009D                     	;# 
   187     009E                     	;# 
   188     009F                     	;# 
   189     010C                     	;# 
   190     010D                     	;# 
   191     010E                     	;# 
   192     010F                     	;# 
   193     018C                     	;# 
   194     018D                     	;# 
   195     0019                     _TXREG	set	25
   196     001A                     _RCREG	set	26
   197     0047                     _RD7	set	71
   198     0045                     _RD5	set	69
   199     0044                     _RD4	set	68
   200     0043                     _RD3	set	67
   201     0042                     _RD2	set	66
   202     0041                     _RD1	set	65
   203     0040                     _RD0	set	64
   204     0031                     _RB1	set	49
   205     0035                     _RB5	set	53
   206     0034                     _RB4	set	52
   207     0033                     _RB3	set	51
   208     0032                     _RB2	set	50
   209     0030                     _RB0	set	48
   210     0064                     _TXIF	set	100
   211     005F                     _GIE	set	95
   212     005E                     _PEIE	set	94
   213     00C4                     _CREN	set	196
   214     00C7                     _SPEN	set	199
   215     0065                     _RCIF	set	101
   216     0099                     _SPBRG	set	153
   217     0086                     _TRISB	set	134
   218     0088                     _TRISD	set	136
   219     0465                     _RCIE	set	1125
   220     04C4                     _SYNC	set	1220
   221     04C2                     _BRGH	set	1218
   222     04C5                     _TXEN	set	1221
   223                           
   224                           	psect	strings
   225     0300                     __pstrings:
   226     0300                     stringtab:
   227     0300                     __stringtab:
   228                           
   229                           ;	String table - string pointers are 1 byte each
   230     0300  1BFF               	btfsc	btemp+1,7
   231     0301  2B0A               	ljmp	stringcode
   232     0302  1383               	bcf	3,7
   233     0303  187F               	btfsc	btemp+1,0
   234     0304  1783               	bsf	3,7
   235     0305  0800               	movf	0,w
   236     0306  0A84               	incf	4,f
   237     0307  1903               	skipnz
   238     0308  0AFF               	incf	btemp+1,f
   239     0309  0008               	return
   240     030A                     stringcode:
   241     030A                     stringdir:
   242     030A  3003               	movlw	high stringdir
   243     030B  008A               	movwf	10
   244     030C  0804               	movf	4,w
   245     030D  0A84               	incf	4,f
   246     030E  0782               	addwf	2,f
   247     030F                     __stringbase:
   248     030F  3400               	retlw	0
   249     0310                     __end_of__stringtab:
   250     0310                     STR_22:
   251     0310  3441               	retlw	65	;'A'
   252     0311  3454               	retlw	84	;'T'
   253     0312  342B               	retlw	43	;'+'
   254     0313  3443               	retlw	67	;'C'
   255     0314  344E               	retlw	78	;'N'
   256     0315  344D               	retlw	77	;'M'
   257     0316  3449               	retlw	73	;'I'
   258     0317  343D               	retlw	61	;'='
   259     0318  3432               	retlw	50	;'2'
   260     0319  342C               	retlw	44	;','
   261     031A  3432               	retlw	50	;'2'
   262     031B  342C               	retlw	44	;','
   263     031C  3430               	retlw	48	;'0'
   264     031D  342C               	retlw	44	;','
   265     031E  3430               	retlw	48	;'0'
   266     031F  342C               	retlw	44	;','
   267     0320  3430               	retlw	48	;'0'
   268     0321  3400               	retlw	0
   269     0322                     STR_25:
   270     0322  3452               	retlw	82	;'R'
   271     0323  3465               	retlw	101	;'e'
   272     0324  3463               	retlw	99	;'c'
   273     0325  3465               	retlw	101	;'e'
   274     0326  3469               	retlw	105	;'i'
   275     0327  3476               	retlw	118	;'v'
   276     0328  3465               	retlw	101	;'e'
   277     0329  3464               	retlw	100	;'d'
   278     032A  3420               	retlw	32	;' '
   279     032B  3453               	retlw	83	;'S'
   280     032C  344D               	retlw	77	;'M'
   281     032D  3453               	retlw	83	;'S'
   282     032E  343A               	retlw	58	;':'
   283     032F  3420               	retlw	32	;' '
   284     0330  3400               	retlw	0
   285     0331                     STR_7:
   286     0331  344D               	retlw	77	;'M'
   287     0332  3465               	retlw	101	;'e'
   288     0333  3473               	retlw	115	;'s'
   289     0334  3473               	retlw	115	;'s'
   290     0335  3461               	retlw	97	;'a'
   291     0336  3467               	retlw	103	;'g'
   292     0337  3465               	retlw	101	;'e'
   293     0338  3420               	retlw	32	;' '
   294     0339  3453               	retlw	83	;'S'
   295     033A  3465               	retlw	101	;'e'
   296     033B  346E               	retlw	110	;'n'
   297     033C  3474               	retlw	116	;'t'
   298     033D  3400               	retlw	0
   299     033E                     STR_16:
   300     033E  3441               	retlw	65	;'A'
   301     033F  3454               	retlw	84	;'T'
   302     0340  342B               	retlw	43	;'+'
   303     0341  3443               	retlw	67	;'C'
   304     0342  344D               	retlw	77	;'M'
   305     0343  3447               	retlw	71	;'G'
   306     0344  3446               	retlw	70	;'F'
   307     0345  343D               	retlw	61	;'='
   308     0346  3431               	retlw	49	;'1'
   309     0347  340D               	retlw	13
   310     0348  3400               	retlw	0
   311     0349                     STR_24:
   312     0349  3452               	retlw	82	;'R'
   313     034A  3445               	retlw	69	;'E'
   314     034B  3443               	retlw	67	;'C'
   315     034C  3445               	retlw	69	;'E'
   316     034D  3449               	retlw	73	;'I'
   317     034E  3456               	retlw	86	;'V'
   318     034F  3445               	retlw	69	;'E'
   319     0350  3453               	retlw	83	;'S'
   320     0351  344D               	retlw	77	;'M'
   321     0352  3453               	retlw	83	;'S'
   322     0353  3400               	retlw	0
   323     0354                     STR_17:
   324     0354  3441               	retlw	65	;'A'
   325     0355  3454               	retlw	84	;'T'
   326     0356  342B               	retlw	43	;'+'
   327     0357  3443               	retlw	67	;'C'
   328     0358  344D               	retlw	77	;'M'
   329     0359  3447               	retlw	71	;'G'
   330     035A  3453               	retlw	83	;'S'
   331     035B  343D               	retlw	61	;'='
   332     035C  3422               	retlw	34	;'"'
   333     035D  3400               	retlw	0
   334     035E                     STR_21:
   335     035E  3441               	retlw	65	;'A'
   336     035F  3454               	retlw	84	;'T'
   337     0360  342B               	retlw	43	;'+'
   338     0361  3443               	retlw	67	;'C'
   339     0362  344D               	retlw	77	;'M'
   340     0363  3447               	retlw	71	;'G'
   341     0364  3446               	retlw	70	;'F'
   342     0365  343D               	retlw	61	;'='
   343     0366  3431               	retlw	49	;'1'
   344     0367  3400               	retlw	0
   345     0368                     STR_23:
   346     0368  3441               	retlw	65	;'A'
   347     0369  3454               	retlw	84	;'T'
   348     036A  342B               	retlw	43	;'+'
   349     036B  3443               	retlw	67	;'C'
   350     036C  344D               	retlw	77	;'M'
   351     036D  3447               	retlw	71	;'G'
   352     036E  3452               	retlw	82	;'R'
   353     036F  343D               	retlw	61	;'='
   354     0370  3431               	retlw	49	;'1'
   355     0371  3400               	retlw	0
   356     0372                     STR_3:
   357     0372  3443               	retlw	67	;'C'
   358     0373  3441               	retlw	65	;'A'
   359     0374  344C               	retlw	76	;'L'
   360     0375  344C               	retlw	76	;'L'
   361     0376  3449               	retlw	73	;'I'
   362     0377  344E               	retlw	78	;'N'
   363     0378  3447               	retlw	71	;'G'
   364     0379  3400               	retlw	0
   365     037A                     STR_8:
   366     037A  3441               	retlw	65	;'A'
   367     037B  3454               	retlw	84	;'T'
   368     037C  3444               	retlw	68	;'D'
   369     037D  344C               	retlw	76	;'L'
   370     037E  340D               	retlw	13
   371     037F  340A               	retlw	10
   372     0380  3400               	retlw	0
   373     0381                     STR_6:
   374     0381  3448               	retlw	72	;'H'
   375     0382  3465               	retlw	101	;'e'
   376     0383  346C               	retlw	108	;'l'
   377     0384  346C               	retlw	108	;'l'
   378     0385  346F               	retlw	111	;'o'
   379     0386  3420               	retlw	32	;' '
   380     0387  3400               	retlw	0
   381     0388                     STR_9:
   382     0388  3452               	retlw	82	;'R'
   383     0389  3445               	retlw	69	;'E'
   384     038A  3444               	retlw	68	;'D'
   385     038B  3449               	retlw	73	;'I'
   386     038C  3441               	retlw	65	;'A'
   387     038D  344C               	retlw	76	;'L'
   388     038E  3400               	retlw	0
   389     038F                     STR_5:
   390     038F  3441               	retlw	65	;'A'
   391     0390  344E               	retlw	78	;'N'
   392     0391  3453               	retlw	83	;'S'
   393     0392  3457               	retlw	87	;'W'
   394     0393  3445               	retlw	69	;'E'
   395     0394  3452               	retlw	82	;'R'
   396     0395  3400               	retlw	0
   397     0396                     STR_14:
   398     0396  3441               	retlw	65	;'A'
   399     0397  3454               	retlw	84	;'T'
   400     0398  3441               	retlw	65	;'A'
   401     0399  340D               	retlw	13
   402     039A  340A               	retlw	10
   403     039B  3400               	retlw	0
   404     039C                     STR_15:
   405     039C  3441               	retlw	65	;'A'
   406     039D  3454               	retlw	84	;'T'
   407     039E  3448               	retlw	72	;'H'
   408     039F  340D               	retlw	13
   409     03A0  340A               	retlw	10
   410     03A1  3400               	retlw	0
   411     03A2                     STR_1:
   412     03A2  3452               	retlw	82	;'R'
   413     03A3  3449               	retlw	73	;'I'
   414     03A4  344E               	retlw	78	;'N'
   415     03A5  3447               	retlw	71	;'G'
   416     03A6  3400               	retlw	0
   417     03A7                     STR_13:
   418     03A7  343B               	retlw	59	;';'
   419     03A8  340D               	retlw	13
   420     03A9  340A               	retlw	10
   421     03AA  3400               	retlw	0
   422     03AB                     STR_10:
   423     03AB  3445               	retlw	69	;'E'
   424     03AC  344E               	retlw	78	;'N'
   425     03AD  3444               	retlw	68	;'D'
   426     03AE  3400               	retlw	0
   427     03AF                     STR_12:
   428     03AF  3441               	retlw	65	;'A'
   429     03B0  3454               	retlw	84	;'T'
   430     03B1  3444               	retlw	68	;'D'
   431     03B2  3400               	retlw	0
   432     03B3                     STR_18:
   433     03B3  3422               	retlw	34	;'"'
   434     03B4  340D               	retlw	13
   435     03B5  3400               	retlw	0
   436     03B6                     STR_11:
   437     03B6  3441               	retlw	65	;'A'
   438     03B7  3454               	retlw	84	;'T'
   439     03B8  3400               	retlw	0
   440     03B9                     STR_27:
   441     03B9  3407               	retlw	7
   442     03BA  3400               	retlw	0
   443     03BB                     STR_19:
   444     03BB  341A               	retlw	26
   445     03BC  3400               	retlw	0
   446     03B9                     
   447                           	psect	cinit
   448     0015                     start_initialization:	
   449                           ; #config settings
   450                           
   451     0015                     __initialization:
   452                           
   453                           ; Clear objects allocated to BANK0
   454     0015  1383               	bcf	3,7	;select IRP bank0
   455     0016  3020               	movlw	low __pbssBANK0
   456     0017  0084               	movwf	4
   457     0018  3053               	movlw	low (__pbssBANK0+51)
   458     0019  120A  118A  22E1  120A  118A  	fcall	clear_ram0
   459                           
   460                           ; Clear objects allocated to BANK1
   461     001E  30A0               	movlw	low __pbssBANK1
   462     001F  0084               	movwf	4
   463     0020  30DE               	movlw	low (__pbssBANK1+62)
   464     0021  120A  118A  22E1  120A  118A  	fcall	clear_ram0
   465                           
   466                           ; Clear objects allocated to BANK3
   467     0026  1783               	bsf	3,7	;select IRP bank2
   468     0027  3090               	movlw	low __pbssBANK3
   469     0028  0084               	movwf	4
   470     0029  30E0               	movlw	low (__pbssBANK3+80)
   471     002A  120A  118A  22E1  120A  118A  	fcall	clear_ram0
   472     002F                     end_of_initialization:	
   473                           ;End of C runtime variable initialization code
   474                           
   475     002F                     __end_of__initialization:
   476     002F  0183               	clrf	3
   477     0030  120A  118A  2833   	ljmp	_main	;jump to C main() function
   478                           
   479                           	psect	bssBANK0
   480     0020                     __pbssBANK0:
   481     0020                     _width:
   482     0020                     	ds	2
   483     0022                     _prec:
   484     0022                     	ds	2
   485     0024                     _j:
   486     0024                     	ds	2
   487     0026                     _flags:
   488     0026                     	ds	1
   489     0027                     _c:
   490     0027                     	ds	1
   491     0028                     _message:
   492     0028                     	ds	1
   493     0029                     _incoming:
   494     0029                     	ds	1
   495     002A                     _g:
   496     002A                     	ds	30
   497     0048                     _phonenumber:
   498     0048                     	ds	11
   499                           
   500                           	psect	bssBANK1
   501     00A0                     __pbssBANK1:
   502     00A0                     _dbuf:
   503     00A0                     	ds	32
   504     00C0                     _m:
   505     00C0                     	ds	30
   506                           
   507                           	psect	bssBANK3
   508     0190                     __pbssBANK3:
   509     0190                     _rxBuffer:
   510     0190                     	ds	80
   511                           
   512                           	psect	clrtext
   513     02E1                     clear_ram0:	
   514                           ;	Called with FSR containing the base address, and
   515                           ;	W with the last address+1
   516                           
   517     02E1  0064               	clrwdt	;clear the watchdog before getting into this loop
   518     02E2                     clrloop0:
   519     02E2  0180               	clrf	0	;clear RAM location pointed to by FSR
   520     02E3  0A84               	incf	4,f	;increment pointer
   521     02E4  0604               	xorwf	4,w	;XOR with final address
   522     02E5  1903               	btfsc	3,2	;have we reached the end yet?
   523     02E6  3400               	retlw	0	;all done for this memory range, return
   524     02E7  0604               	xorwf	4,w	;XOR again to restore value
   525     02E8  2AE2               	goto	clrloop0	;do the next byte
   526                           
   527                           	psect	cstackBANK1
   528     00DE                     __pcstackBANK1:
   529     00DE                     main@i_156:
   530                           
   531                           ; 2 bytes @ 0x0
   532     00DE                     	ds	2
   533                           
   534                           	psect	cstackCOMMON
   535     0070                     __pcstackCOMMON:
   536     0070                     ?_Init:
   537     0070                     ?_lcd_init:	
   538                           ; 1 bytes @ 0x0
   539                           
   540     0070                     ?_cmd:	
   541                           ; 1 bytes @ 0x0
   542                           
   543     0070                     ?_key:	
   544                           ; 1 bytes @ 0x0
   545                           
   546     0070                     ?_Call:	
   547                           ; 1 bytes @ 0x0
   548                           
   549     0070                     ?_End:	
   550                           ; 1 bytes @ 0x0
   551                           
   552     0070                     ?_Answer:	
   553                           ; 1 bytes @ 0x0
   554                           
   555     0070                     ?_LCD_Clear:	
   556                           ; 1 bytes @ 0x0
   557                           
   558     0070                     ?_putch:	
   559                           ; 1 bytes @ 0x0
   560                           
   561     0070                     ?_strchr:	
   562                           ; 1 bytes @ 0x0
   563                           
   564     0070                     ?_ISR:	
   565                           ; 1 bytes @ 0x0
   566                           
   567     0070                     ?_main:	
   568                           ; 1 bytes @ 0x0
   569                           
   570     0070                     ?_dat:	
   571                           ; 1 bytes @ 0x0
   572                           
   573     0070                     ?_strcmp:	
   574                           ; 1 bytes @ 0x0
   575                           
   576     0070                     ?_printf:	
   577                           ; 2 bytes @ 0x0
   578                           
   579     0070                     ?_strlen:	
   580                           ; 2 bytes @ 0x0
   581                           
   582     0070                     ?_strncmp:	
   583                           ; 2 bytes @ 0x0
   584                           
   585     0070                     putch@c:	
   586                           ; 2 bytes @ 0x0
   587                           
   588     0070                     strcmp@r:	
   589                           ; 1 bytes @ 0x0
   590                           
   591     0070                     strncmp@r:	
   592                           ; 1 bytes @ 0x0
   593                           
   594     0070                     strchr@c:	
   595                           ; 1 bytes @ 0x0
   596                           
   597                           
   598                           ; 2 bytes @ 0x0
   599     0070                     	ds	1
   600     0071                     strncmp@n:
   601                           
   602                           ; 2 bytes @ 0x1
   603     0071                     	ds	1
   604     0072                     ??_strcmp:
   605     0072                     ??_strlen:	
   606                           ; 1 bytes @ 0x2
   607                           
   608     0072                     ??_strchr:	
   609                           ; 1 bytes @ 0x2
   610                           
   611     0072                     strchr@s:	
   612                           ; 1 bytes @ 0x2
   613                           
   614     0072                     strlen@a:	
   615                           ; 1 bytes @ 0x2
   616                           
   617                           
   618                           ; 1 bytes @ 0x2
   619     0072                     	ds	1
   620     0073                     ??_strncmp:
   621     0073                     strlen@s:	
   622                           ; 1 bytes @ 0x3
   623                           
   624                           
   625                           ; 1 bytes @ 0x3
   626     0073                     	ds	1
   627     0074                     strcmp@l:
   628                           
   629                           ; 1 bytes @ 0x4
   630     0074                     	ds	1
   631     0075                     strncmp@l:
   632                           
   633                           ; 1 bytes @ 0x5
   634     0075                     	ds	1
   635     0076                     ?_strstr:
   636     0076                     strstr@n:	
   637                           ; 1 bytes @ 0x6
   638                           
   639                           
   640                           ; 1 bytes @ 0x6
   641     0076                     	ds	1
   642     0077                     ??_strstr:
   643                           
   644                           ; 1 bytes @ 0x7
   645     0077                     	ds	2
   646     0079                     strstr@nl:
   647                           
   648                           ; 2 bytes @ 0x9
   649     0079                     	ds	2
   650     007B                     strstr@h:
   651                           
   652                           ; 1 bytes @ 0xB
   653     007B                     	ds	1
   654     007C                     ISR@r:
   655                           
   656                           ; 1 bytes @ 0xC
   657     007C                     	ds	1
   658                           
   659                           	psect	cstackBANK0
   660     0053                     __pcstackBANK0:
   661     0053                     ??_ISR:
   662                           
   663                           ; 1 bytes @ 0x0
   664     0053                     	ds	4
   665     0057                     ??_cmd:
   666     0057                     ?_SendCommand:	
   667                           ; 1 bytes @ 0x4
   668                           
   669     0057                     ??_putch:	
   670                           ; 1 bytes @ 0x4
   671                           
   672     0057                     ??_dat:	
   673                           ; 1 bytes @ 0x4
   674                           
   675     0057                     ?_fputc:	
   676                           ; 1 bytes @ 0x4
   677                           
   678     0057                     SendCommand@command:	
   679                           ; 2 bytes @ 0x4
   680                           
   681     0057                     fputc@c:	
   682                           ; 2 bytes @ 0x4
   683                           
   684                           
   685                           ; 2 bytes @ 0x4
   686     0057                     	ds	2
   687     0059                     ??_Init:
   688     0059                     ??_Call:	
   689                           ; 1 bytes @ 0x6
   690                           
   691     0059                     ??_End:	
   692                           ; 1 bytes @ 0x6
   693                           
   694     0059                     ??_Answer:	
   695                           ; 1 bytes @ 0x6
   696                           
   697     0059                     ?_SendMessage:	
   698                           ; 1 bytes @ 0x6
   699                           
   700     0059                     ??_SendCommand:	
   701                           ; 1 bytes @ 0x6
   702                           
   703     0059                     cmd@a:	
   704                           ; 1 bytes @ 0x6
   705                           
   706     0059                     dat@a:	
   707                           ; 1 bytes @ 0x6
   708                           
   709     0059                     Call@phoneNumber:	
   710                           ; 1 bytes @ 0x6
   711                           
   712     0059                     SendMessage@message:	
   713                           ; 1 bytes @ 0x6
   714                           
   715     0059                     fputc@fp:	
   716                           ; 1 bytes @ 0x6
   717                           
   718                           
   719                           ; 1 bytes @ 0x6
   720     0059                     	ds	1
   721     005A                     ??_lcd_init:
   722     005A                     ?_show:	
   723                           ; 1 bytes @ 0x7
   724                           
   725     005A                     ??_SendMessage:	
   726                           ; 1 bytes @ 0x7
   727                           
   728     005A                     ??_LCD_Clear:	
   729                           ; 1 bytes @ 0x7
   730                           
   731     005A                     ??_fputc:	
   732                           ; 1 bytes @ 0x7
   733                           
   734     005A                     show@s:	
   735                           ; 1 bytes @ 0x7
   736                           
   737                           
   738                           ; 2 bytes @ 0x7
   739     005A                     	ds	2
   740     005C                     ??_show:
   741                           
   742                           ; 1 bytes @ 0x9
   743     005C                     	ds	1
   744     005D                     SendMessage@phoneNumber:
   745                           
   746                           ; 1 bytes @ 0xA
   747     005D                     	ds	2
   748     005F                     ?_vfpfcnvrt:
   749     005F                     vfpfcnvrt@fmt:	
   750                           ; 1 bytes @ 0xC
   751                           
   752                           
   753                           ; 1 bytes @ 0xC
   754     005F                     	ds	1
   755     0060                     vfpfcnvrt@ap:
   756                           
   757                           ; 1 bytes @ 0xD
   758     0060                     	ds	1
   759     0061                     ??_vfpfcnvrt:
   760                           
   761                           ; 1 bytes @ 0xE
   762     0061                     	ds	2
   763     0063                     vfpfcnvrt@fp:
   764                           
   765                           ; 1 bytes @ 0x10
   766     0063                     	ds	1
   767     0064                     ?_vfprintf:
   768     0064                     vfprintf@fmt:	
   769                           ; 2 bytes @ 0x11
   770                           
   771                           
   772                           ; 1 bytes @ 0x11
   773     0064                     	ds	1
   774     0065                     vfprintf@ap:
   775                           
   776                           ; 1 bytes @ 0x12
   777     0065                     	ds	1
   778     0066                     ??_vfprintf:
   779     0066                     vfprintf@fp:	
   780                           ; 1 bytes @ 0x13
   781                           
   782                           
   783                           ; 1 bytes @ 0x13
   784     0066                     	ds	1
   785     0067                     vfprintf@cfmt:
   786                           
   787                           ; 1 bytes @ 0x14
   788     0067                     	ds	1
   789     0068                     ??_printf:
   790     0068                     printf@ap:	
   791                           ; 1 bytes @ 0x15
   792                           
   793                           
   794                           ; 1 bytes @ 0x15
   795     0068                     	ds	1
   796     0069                     printf@fmt:
   797                           
   798                           ; 1 bytes @ 0x16
   799     0069                     	ds	1
   800     006A                     ??_key:
   801     006A                     ??_main:	
   802                           ; 1 bytes @ 0x17
   803                           
   804                           
   805                           ; 1 bytes @ 0x17
   806     006A                     	ds	2
   807                           
   808                           	psect	maintext
   809     0033                     __pmaintext:	
   810 ;;
   811 ;;Main: autosize = 0, tempsize = 2, incstack = 0, save=0
   812 ;;
   813 ;; *************** function _main *****************
   814 ;; Defined at:
   815 ;;		line 79 in file "GSM3.c"
   816 ;; Parameters:    Size  Location     Type
   817 ;;		None
   818 ;; Auto vars:     Size  Location     Type
   819 ;;  i               2    0[BANK1 ] int 
   820 ;;  i               2    0        unsigned int 
   821 ;; Return value:  Size  Location     Type
   822 ;;                  1    wreg      void 
   823 ;; Registers used:
   824 ;;		wreg, fsr0l, fsr0h, status,2, status,0, btemp+1, pclath, cstack
   825 ;; Tracked objects:
   826 ;;		On entry : B00/0
   827 ;;		On exit  : 0/0
   828 ;;		Unchanged: 0/0
   829 ;; Data sizes:     COMMON   BANK0   BANK1   BANK3   BANK2
   830 ;;      Params:         0       0       0       0       0
   831 ;;      Locals:         0       0       2       0       0
   832 ;;      Temps:          0       2       0       0       0
   833 ;;      Totals:         0       2       2       0       0
   834 ;;Total ram usage:        4 bytes
   835 ;; Hardware stack levels required when called: 9
   836 ;; This function calls:
   837 ;;		_Answer
   838 ;;		_Call
   839 ;;		_End
   840 ;;		_Init
   841 ;;		_LCD_Clear
   842 ;;		_SendCommand
   843 ;;		_SendMessage
   844 ;;		_cmd
   845 ;;		_key
   846 ;;		_lcd_init
   847 ;;		_show
   848 ;; This function is called by:
   849 ;;		Startup code after reset
   850 ;; This function uses a non-reentrant model
   851 ;;
   852                           
   853     0033                     _main:	
   854                           ;psect for function _main
   855                           
   856     0033                     l2167:	
   857                           ;incstack = 0
   858 ;; hardware stack exceeded
   859                           ; Regs used in _main: [wreg-fsr0h+status,2+status,0+btemp+1+pclath+cstack]
   860                           
   861                           
   862                           ;GSM3.c: 80:     TRISD = 0xf0;
   863     0033  30F0               	movlw	240
   864     0034  1683               	bsf	3,5	;RP0=1, select bank1
   865     0035  1303               	bcf	3,6	;RP1=0, select bank1
   866     0036  0088               	movwf	8	;volatile
   867     0037                     l2169:
   868                           
   869                           ;GSM3.c: 81:     TRISB=0;
   870     0037  0186               	clrf	6	;volatile
   871     0038                     l2171:
   872                           
   873                           ;GSM3.c: 82:     Init();
   874     0038  120A  118A  2709  120A  118A  	fcall	_Init
   875     003D                     l2173:
   876                           
   877                           ;GSM3.c: 83:     unsigned int i;;GSM3.c: 84:     lcd_init();
   878     003D  120A  118A  277C  120A  118A  	fcall	_lcd_init
   879     0042                     l2175:
   880                           
   881                           ;GSM3.c: 85:     cmd(0x80);
   882     0042  3080               	movlw	128
   883     0043  120A  118A  2468  120A  118A  	fcall	_cmd
   884     0048                     l2177:
   885                           
   886                           ;GSM3.c: 86:     show("CALLING");
   887     0048  3063               	movlw	(low ((STR_3-__stringbase)| (0+32768)))& (0+255)
   888     0049  1283               	bcf	3,5	;RP0=0, select bank0
   889     004A  1303               	bcf	3,6	;RP1=0, select bank0
   890     004B  00DA               	movwf	show@s
   891     004C  3080               	movlw	128
   892     004D  00DB               	movwf	show@s+1
   893     004E  120A  118A  27A5  120A  118A  	fcall	_show
   894     0053                     l2179:
   895                           
   896                           ;GSM3.c: 92:         c=key();
   897     0053  120A  118A  215D  120A  118A  	fcall	_key
   898     0058  1283               	bcf	3,5	;RP0=0, select bank0
   899     0059  1303               	bcf	3,6	;RP1=0, select bank0
   900     005A  00A7               	movwf	_c
   901     005B                     l2181:
   902                           
   903                           ;GSM3.c: 93:         if(c>='0'&&c<='9'){
   904     005B  3030               	movlw	48
   905     005C  0227               	subwf	_c,w
   906     005D  1C03               	skipc
   907     005E  2860               	goto	u2981
   908     005F  2861               	goto	u2980
   909     0060                     u2981:
   910     0060  28DA               	goto	l2219
   911     0061                     u2980:
   912     0061                     l2183:
   913     0061  303A               	movlw	58
   914     0062  0227               	subwf	_c,w
   915     0063  1803               	skipnc
   916     0064  2866               	goto	u2991
   917     0065  2867               	goto	u2990
   918     0066                     u2991:
   919     0066  28DA               	goto	l2219
   920     0067                     u2990:
   921     0067                     l2185:
   922                           
   923                           ;GSM3.c: 94:             for(int i=0;i<=9;i++){
   924     0067  1683               	bsf	3,5	;RP0=1, select bank1
   925     0068  1303               	bcf	3,6	;RP1=0, select bank1
   926     0069  01DE               	clrf	main@i_156^(0+128)
   927     006A  01DF               	clrf	(main@i_156+1)^(0+128)
   928     006B                     l2191:
   929                           
   930                           ;GSM3.c: 95:                 phonenumber[i]=c;
   931     006B  1683               	bsf	3,5	;RP0=1, select bank1
   932     006C  1303               	bcf	3,6	;RP1=0, select bank1
   933     006D  085E               	movf	main@i_156^(0+128),w
   934     006E  3E48               	addlw	(low (_phonenumber| 0))& (0+255)
   935     006F  0084               	movwf	4
   936     0070  1283               	bcf	3,5	;RP0=0, select bank0
   937     0071  1303               	bcf	3,6	;RP1=0, select bank0
   938     0072  0827               	movf	_c,w
   939     0073  1383               	bcf	3,7	;select IRP bank0
   940     0074  0080               	movwf	0
   941     0075                     l2193:
   942                           
   943                           ;GSM3.c: 96:                 c=key();
   944     0075  120A  118A  215D  120A  118A  	fcall	_key
   945     007A  1283               	bcf	3,5	;RP0=0, select bank0
   946     007B  1303               	bcf	3,6	;RP1=0, select bank0
   947     007C  00A7               	movwf	_c
   948     007D                     l2195:
   949                           
   950                           ;GSM3.c: 97:             }
   951     007D  3001               	movlw	1
   952     007E  1683               	bsf	3,5	;RP0=1, select bank1
   953     007F  1303               	bcf	3,6	;RP1=0, select bank1
   954     0080  07DE               	addwf	main@i_156^(0+128),f
   955     0081  1803               	skipnc
   956     0082  0ADF               	incf	(main@i_156+1)^(0+128),f
   957     0083  3000               	movlw	0
   958     0084  07DF               	addwf	(main@i_156+1)^(0+128),f
   959     0085                     l2197:
   960     0085  085F               	movf	(main@i_156+1)^(0+128),w
   961     0086  3A80               	xorlw	128
   962     0087  00FF               	movwf	btemp+1
   963     0088  3080               	movlw	128
   964     0089  027F               	subwf	btemp+1,w
   965     008A  1D03               	skipz
   966     008B  288E               	goto	u3005
   967     008C  300A               	movlw	10
   968     008D  025E               	subwf	main@i_156^(0+128),w
   969     008E                     u3005:
   970     008E  1C03               	skipc
   971     008F  2891               	goto	u3001
   972     0090  2892               	goto	u3000
   973     0091                     u3001:
   974     0091  286B               	goto	l2191
   975     0092                     u3000:
   976     0092                     l2199:
   977                           
   978                           ;GSM3.c: 98:             phonenumber[10]='\0';
   979     0092  1283               	bcf	3,5	;RP0=0, select bank0
   980     0093  1303               	bcf	3,6	;RP1=0, select bank0
   981     0094  01D2               	clrf	_phonenumber+10
   982     0095                     l2201:
   983                           
   984                           ;GSM3.c: 99:         if(c=='*'){
   985     0095  302A               	movlw	42
   986     0096  0627               	xorwf	_c,w
   987     0097  1D03               	btfss	3,2
   988     0098  289A               	goto	u3011
   989     0099  289B               	goto	u3010
   990     009A                     u3011:
   991     009A  28CF               	goto	l2215
   992     009B                     u3010:
   993     009B                     l2203:
   994                           
   995                           ;GSM3.c: 100:               cmd(0x80);
   996     009B  3080               	movlw	128
   997     009C  120A  118A  2468  120A  118A  	fcall	_cmd
   998     00A1                     l2205:
   999                           
  1000                           ;GSM3.c: 101:                show("CALLING");
  1001     00A1  3063               	movlw	(low ((STR_3-__stringbase)| (0+32768)))& (0+255)
  1002     00A2  1283               	bcf	3,5	;RP0=0, select bank0
  1003     00A3  1303               	bcf	3,6	;RP1=0, select bank0
  1004     00A4  00DA               	movwf	show@s
  1005     00A5  3080               	movlw	128
  1006     00A6  00DB               	movwf	show@s+1
  1007     00A7  120A  118A  27A5  120A  118A  	fcall	_show
  1008     00AC                     l2207:
  1009                           
  1010                           ;GSM3.c: 102:                _delay((unsigned long)((1)*(20000000/4000.0)));
  1011     00AC  3007               	movlw	7
  1012     00AD  1283               	bcf	3,5	;RP0=0, select bank0
  1013     00AE  1303               	bcf	3,6	;RP1=0, select bank0
  1014     00AF  00EB               	movwf	??_main+1
  1015     00B0  307C               	movlw	124
  1016     00B1  00EA               	movwf	??_main
  1017     00B2                     u3077:
  1018     00B2  0BEA               	decfsz	??_main,f
  1019     00B3  28B2               	goto	u3077
  1020     00B4  0BEB               	decfsz	??_main+1,f
  1021     00B5  28B2               	goto	u3077
  1022     00B6  0000               	nop
  1023     00B7                     l2209:
  1024                           
  1025                           ;GSM3.c: 103:               cmd(0x80);
  1026     00B7  3080               	movlw	128
  1027     00B8  120A  118A  2468  120A  118A  	fcall	_cmd
  1028     00BD                     l2211:
  1029                           
  1030                           ;GSM3.c: 104:               show(phonenumber);
  1031     00BD  3048               	movlw	(low (_phonenumber| 0))& (0+255)
  1032     00BE  1283               	bcf	3,5	;RP0=0, select bank0
  1033     00BF  1303               	bcf	3,6	;RP1=0, select bank0
  1034     00C0  00DA               	movwf	show@s
  1035     00C1  3000               	movlw	0
  1036     00C2  00DB               	movwf	show@s+1
  1037     00C3  120A  118A  27A5  120A  118A  	fcall	_show
  1038     00C8                     l2213:
  1039                           
  1040                           ;GSM3.c: 105:               Call(phonenumber);
  1041     00C8  3048               	movlw	(low (_phonenumber| 0))& (0+255)
  1042     00C9  120A  118A  2253  120A  118A  	fcall	_Call
  1043                           
  1044                           ;GSM3.c: 106:               break;
  1045     00CE  295A               	goto	l136
  1046     00CF                     l2215:
  1047                           
  1048                           ;GSM3.c: 109:         if(c=='#'){
  1049     00CF  3023               	movlw	35
  1050     00D0  0627               	xorwf	_c,w
  1051     00D1  1D03               	btfss	3,2
  1052     00D2  28D4               	goto	u3021
  1053     00D3  28D5               	goto	u3020
  1054     00D4                     u3021:
  1055     00D4  28DA               	goto	l2219
  1056     00D5                     u3020:
  1057     00D5                     l2217:
  1058                           
  1059                           ;GSM3.c: 110:                 End();
  1060     00D5  120A  118A  27F3  120A  118A  	fcall	_End
  1061     00DA                     l2219:
  1062                           
  1063                           ;GSM3.c: 113:         if(c=='*'){
  1064     00DA  302A               	movlw	42
  1065     00DB  1283               	bcf	3,5	;RP0=0, select bank0
  1066     00DC  1303               	bcf	3,6	;RP1=0, select bank0
  1067     00DD  0627               	xorwf	_c,w
  1068     00DE  1D03               	btfss	3,2
  1069     00DF  28E1               	goto	u3031
  1070     00E0  28E2               	goto	u3030
  1071     00E1                     u3031:
  1072     00E1  2936               	goto	l2243
  1073     00E2                     u3030:
  1074     00E2                     l2221:
  1075                           
  1076                           ;GSM3.c: 114:             if(incoming){
  1077     00E2  0829               	movf	_incoming,w
  1078     00E3  1903               	btfsc	3,2
  1079     00E4  28E6               	goto	u3041
  1080     00E5  28E7               	goto	u3040
  1081     00E6                     u3041:
  1082     00E6  28FE               	goto	l2229
  1083     00E7                     u3040:
  1084     00E7                     l2223:
  1085                           
  1086                           ;GSM3.c: 115:                 Answer();
  1087     00E7  120A  118A  22D5  120A  118A  	fcall	_Answer
  1088     00EC                     l2225:
  1089                           
  1090                           ;GSM3.c: 116:                 cmd(0x80);
  1091     00EC  3080               	movlw	128
  1092     00ED  120A  118A  2468  120A  118A  	fcall	_cmd
  1093     00F2                     l2227:
  1094                           
  1095                           ;GSM3.c: 117:                 show("ANSWER");
  1096     00F2  3080               	movlw	(low ((STR_5-__stringbase)| (0+32768)))& (0+255)
  1097     00F3  1283               	bcf	3,5	;RP0=0, select bank0
  1098     00F4  1303               	bcf	3,6	;RP1=0, select bank0
  1099     00F5  00DA               	movwf	show@s
  1100     00F6  3080               	movlw	128
  1101     00F7  00DB               	movwf	show@s+1
  1102     00F8  120A  118A  27A5  120A  118A  	fcall	_show
  1103                           
  1104                           ;GSM3.c: 118:             }
  1105     00FD  2936               	goto	l2243
  1106     00FE                     l2229:
  1107     00FE  0828               	movf	_message,w
  1108     00FF  1903               	btfsc	3,2
  1109     0100  2902               	goto	u3051
  1110     0101  2903               	goto	u3050
  1111     0102                     u3051:
  1112     0102  291C               	goto	l2237
  1113     0103                     u3050:
  1114     0103                     l2231:
  1115                           
  1116                           ;GSM3.c: 120:                 SendMessage(phonenumber, "Hello ");
  1117     0103  3072               	movlw	(low ((STR_6-__stringbase)| (0+32768)))& (0+255)
  1118     0104  00D9               	movwf	SendMessage@message
  1119     0105  3048               	movlw	(low (_phonenumber| 0))& (0+255)
  1120     0106  120A  118A  2513  120A  118A  	fcall	_SendMessage
  1121     010B                     l2233:
  1122                           
  1123                           ;GSM3.c: 121:                 LCD_Clear();
  1124     010B  120A  118A  22E9  120A  118A  	fcall	_LCD_Clear
  1125     0110                     l2235:
  1126                           
  1127                           ;GSM3.c: 122:                 show("Message Sent");
  1128     0110  3022               	movlw	(low ((STR_7-__stringbase)| (0+32768)))& (0+255)
  1129     0111  1283               	bcf	3,5	;RP0=0, select bank0
  1130     0112  1303               	bcf	3,6	;RP1=0, select bank0
  1131     0113  00DA               	movwf	show@s
  1132     0114  3080               	movlw	128
  1133     0115  00DB               	movwf	show@s+1
  1134     0116  120A  118A  27A5  120A  118A  	fcall	_show
  1135                           
  1136                           ;GSM3.c: 123:             }
  1137     011B  2936               	goto	l2243
  1138     011C                     l2237:
  1139                           
  1140                           ;GSM3.c: 126:             SendCommand("ATDL\r\n");
  1141     011C  306B               	movlw	(low ((STR_8-__stringbase)| (0+32768)))& (0+255)
  1142     011D  00D7               	movwf	SendCommand@command
  1143     011E  3080               	movlw	128
  1144     011F  00D8               	movwf	SendCommand@command+1
  1145     0120  120A  118A  27CD  120A  118A  	fcall	_SendCommand
  1146     0125                     l2239:
  1147                           
  1148                           ;GSM3.c: 127:             cmd(0x80);
  1149     0125  3080               	movlw	128
  1150     0126  120A  118A  2468  120A  118A  	fcall	_cmd
  1151     012B                     l2241:
  1152                           
  1153                           ;GSM3.c: 128:             show("REDIAL");
  1154     012B  3079               	movlw	(low ((STR_9-__stringbase)| (0+32768)))& (0+255)
  1155     012C  1283               	bcf	3,5	;RP0=0, select bank0
  1156     012D  1303               	bcf	3,6	;RP1=0, select bank0
  1157     012E  00DA               	movwf	show@s
  1158     012F  3080               	movlw	128
  1159     0130  00DB               	movwf	show@s+1
  1160     0131  120A  118A  27A5  120A  118A  	fcall	_show
  1161     0136                     l2243:
  1162                           
  1163                           ;GSM3.c: 133:         if(c=='#'){
  1164     0136  3023               	movlw	35
  1165     0137  1283               	bcf	3,5	;RP0=0, select bank0
  1166     0138  1303               	bcf	3,6	;RP1=0, select bank0
  1167     0139  0627               	xorwf	_c,w
  1168     013A  1D03               	btfss	3,2
  1169     013B  293D               	goto	u3061
  1170     013C  293E               	goto	u3060
  1171     013D                     u3061:
  1172     013D  2853               	goto	l2179
  1173     013E                     u3060:
  1174     013E                     l2245:
  1175                           
  1176                           ;GSM3.c: 134:             End();
  1177     013E  120A  118A  27F3  120A  118A  	fcall	_End
  1178     0143                     l2247:
  1179                           
  1180                           ;GSM3.c: 135:             LCD_Clear();
  1181     0143  120A  118A  22E9  120A  118A  	fcall	_LCD_Clear
  1182     0148                     l2249:
  1183                           
  1184                           ;GSM3.c: 136:             cmd(0x80);
  1185     0148  3080               	movlw	128
  1186     0149  120A  118A  2468  120A  118A  	fcall	_cmd
  1187                           
  1188                           ;GSM3.c: 137:             show("END");
  1189     014E  309C               	movlw	(low ((STR_10-__stringbase)| (0+32768)))& (0+255)
  1190     014F  1283               	bcf	3,5	;RP0=0, select bank0
  1191     0150  1303               	bcf	3,6	;RP1=0, select bank0
  1192     0151  00DA               	movwf	show@s
  1193     0152  3080               	movlw	128
  1194     0153  00DB               	movwf	show@s+1
  1195     0154  120A  118A  27A5  120A  118A  	fcall	_show
  1196     0159  2853               	goto	l2179
  1197     015A                     l136:
  1198     015A  120A  118A  2812   	ljmp	start
  1199     015D                     __end_of_main:
  1200                           
  1201                           	psect	text1
  1202     07A5                     __ptext1:	
  1203 ;; *************** function _show *****************
  1204 ;; Defined at:
  1205 ;;		line 223 in file "GSM3.c"
  1206 ;; Parameters:    Size  Location     Type
  1207 ;;  s               2    7[BANK0 ] PTR unsigned char 
  1208 ;;		 -> STR_24(11), STR_10(4), STR_9(7), STR_7(13), 
  1209 ;;		 -> STR_5(7), STR_4(8), phonenumber(11), STR_3(8), 
  1210 ;; Auto vars:     Size  Location     Type
  1211 ;;		None
  1212 ;; Return value:  Size  Location     Type
  1213 ;;                  1    wreg      void 
  1214 ;; Registers used:
  1215 ;;		wreg, fsr0l, fsr0h, status,2, status,0, btemp+1, pclath, cstack
  1216 ;; Tracked objects:
  1217 ;;		On entry : 0/0
  1218 ;;		On exit  : 0/0
  1219 ;;		Unchanged: 0/0
  1220 ;; Data sizes:     COMMON   BANK0   BANK1   BANK3   BANK2
  1221 ;;      Params:         0       2       0       0       0
  1222 ;;      Locals:         0       0       0       0       0
  1223 ;;      Temps:          0       0       0       0       0
  1224 ;;      Totals:         0       2       0       0       0
  1225 ;;Total ram usage:        2 bytes
  1226 ;; Hardware stack levels used: 1
  1227 ;; Hardware stack levels required when called: 4
  1228 ;; This function calls:
  1229 ;;		_dat
  1230 ;; This function is called by:
  1231 ;;		_main
  1232 ;;		_receiveSMS
  1233 ;; This function uses a non-reentrant model
  1234 ;;
  1235                           
  1236     07A5                     _show:	
  1237                           ;psect for function _show
  1238                           
  1239     07A5                     l2015:	
  1240                           ;incstack = 0
  1241                           ; Regs used in _show: [wreg-fsr0h+status,2+status,0+btemp+1+pclath+cstack]
  1242                           
  1243                           
  1244                           ;GSM3.c: 223: void show(unsigned char *s);GSM3.c: 224: {;GSM3.c: 225:     while(*s) {
  1245     07A5  2FBC               	goto	l2021
  1246     07A6                     l2017:
  1247                           
  1248                           ;GSM3.c: 226:         dat(*s++);
  1249     07A6  085B               	movf	show@s+1,w
  1250     07A7  00FF               	movwf	btemp+1
  1251     07A8  085A               	movf	show@s,w
  1252     07A9  0084               	movwf	4
  1253     07AA  120A  118A  2300  120A  118A  	fcall	stringtab
  1254     07AF  120A  118A  23BD  120A  118A  	fcall	_dat
  1255     07B4                     l2019:
  1256     07B4  3001               	movlw	1
  1257     07B5  1283               	bcf	3,5	;RP0=0, select bank0
  1258     07B6  1303               	bcf	3,6	;RP1=0, select bank0
  1259     07B7  07DA               	addwf	show@s,f
  1260     07B8  1803               	skipnc
  1261     07B9  0ADB               	incf	show@s+1,f
  1262     07BA  3000               	movlw	0
  1263     07BB  07DB               	addwf	show@s+1,f
  1264     07BC                     l2021:
  1265                           
  1266                           ;GSM3.c: 225:     while(*s) {
  1267     07BC  1283               	bcf	3,5	;RP0=0, select bank0
  1268     07BD  1303               	bcf	3,6	;RP1=0, select bank0
  1269     07BE  085B               	movf	show@s+1,w
  1270     07BF  00FF               	movwf	btemp+1
  1271     07C0  085A               	movf	show@s,w
  1272     07C1  0084               	movwf	4
  1273     07C2  120A  118A  2300  120A  118A  	fcall	stringtab
  1274     07C7  3A00               	xorlw	0
  1275     07C8  1D03               	skipz
  1276     07C9  2FCB               	goto	u2731
  1277     07CA  2FCC               	goto	u2730
  1278     07CB                     u2731:
  1279     07CB  2FA6               	goto	l2017
  1280     07CC                     u2730:
  1281     07CC                     l169:
  1282     07CC  0008               	return
  1283     07CD                     __end_of_show:
  1284                           
  1285                           	psect	text2
  1286     03BD                     __ptext2:	
  1287 ;; *************** function _dat *****************
  1288 ;; Defined at:
  1289 ;;		line 204 in file "GSM3.c"
  1290 ;; Parameters:    Size  Location     Type
  1291 ;;  a               1    wreg     unsigned char 
  1292 ;; Auto vars:     Size  Location     Type
  1293 ;;  a               1    6[BANK0 ] unsigned char 
  1294 ;; Return value:  Size  Location     Type
  1295 ;;                  1    wreg      void 
  1296 ;; Registers used:
  1297 ;;		wreg, status,2, status,0
  1298 ;; Tracked objects:
  1299 ;;		On entry : 0/0
  1300 ;;		On exit  : 0/0
  1301 ;;		Unchanged: 0/0
  1302 ;; Data sizes:     COMMON   BANK0   BANK1   BANK3   BANK2
  1303 ;;      Params:         0       0       0       0       0
  1304 ;;      Locals:         0       1       0       0       0
  1305 ;;      Temps:          0       2       0       0       0
  1306 ;;      Totals:         0       3       0       0       0
  1307 ;;Total ram usage:        3 bytes
  1308 ;; Hardware stack levels used: 1
  1309 ;; Hardware stack levels required when called: 3
  1310 ;; This function calls:
  1311 ;;		Nothing
  1312 ;; This function is called by:
  1313 ;;		_show
  1314 ;; This function uses a non-reentrant model
  1315 ;;
  1316                           
  1317     03BD                     _dat:	
  1318                           ;psect for function _dat
  1319                           
  1320                           
  1321                           ;incstack = 0
  1322                           ; Regs used in _dat: [wreg+status,2+status,0]
  1323                           ;dat@a stored from wreg
  1324     03BD  1283               	bcf	3,5	;RP0=0, select bank0
  1325     03BE  1303               	bcf	3,6	;RP1=0, select bank0
  1326     03BF  00D9               	movwf	dat@a
  1327     03C0                     l1963:
  1328                           
  1329                           ;GSM3.c: 204: void dat(unsigned char a);GSM3.c: 205: {;GSM3.c: 206:     RB0=1;
  1330     03C0  1406               	bsf	6,0	;volatile
  1331     03C1                     l1965:
  1332                           
  1333                           ;GSM3.c: 207:     RB2=(a>>4)&1;
  1334     03C1  0859               	movf	dat@a,w
  1335     03C2  00D7               	movwf	??_dat
  1336     03C3  3004               	movlw	4
  1337     03C4                     u2505:
  1338     03C4  1003               	clrc
  1339     03C5  0CD7               	rrf	??_dat,f
  1340     03C6  3EFF               	addlw	-1
  1341     03C7  1D03               	skipz
  1342     03C8  2BC4               	goto	u2505
  1343     03C9  1857               	btfsc	??_dat,0
  1344     03CA  2BCC               	goto	u2511
  1345     03CB  2BD0               	goto	u2510
  1346     03CC                     u2511:
  1347     03CC  1283               	bcf	3,5	;RP0=0, select bank0
  1348     03CD  1303               	bcf	3,6	;RP1=0, select bank0
  1349     03CE  1506               	bsf	6,2	;volatile
  1350     03CF  2BD3               	goto	u2524
  1351     03D0                     u2510:
  1352     03D0  1283               	bcf	3,5	;RP0=0, select bank0
  1353     03D1  1303               	bcf	3,6	;RP1=0, select bank0
  1354     03D2  1106               	bcf	6,2	;volatile
  1355     03D3                     u2524:
  1356                           
  1357                           ;GSM3.c: 208:     RB3=(a>>5)&1;
  1358     03D3  0859               	movf	dat@a,w
  1359     03D4  00D7               	movwf	??_dat
  1360     03D5  3005               	movlw	5
  1361     03D6                     u2535:
  1362     03D6  1003               	clrc
  1363     03D7  0CD7               	rrf	??_dat,f
  1364     03D8  3EFF               	addlw	-1
  1365     03D9  1D03               	skipz
  1366     03DA  2BD6               	goto	u2535
  1367     03DB  1857               	btfsc	??_dat,0
  1368     03DC  2BDE               	goto	u2541
  1369     03DD  2BE2               	goto	u2540
  1370     03DE                     u2541:
  1371     03DE  1283               	bcf	3,5	;RP0=0, select bank0
  1372     03DF  1303               	bcf	3,6	;RP1=0, select bank0
  1373     03E0  1586               	bsf	6,3	;volatile
  1374     03E1  2BE5               	goto	u2554
  1375     03E2                     u2540:
  1376     03E2  1283               	bcf	3,5	;RP0=0, select bank0
  1377     03E3  1303               	bcf	3,6	;RP1=0, select bank0
  1378     03E4  1186               	bcf	6,3	;volatile
  1379     03E5                     u2554:
  1380                           
  1381                           ;GSM3.c: 209:     RB4=(a>>6)&1;
  1382     03E5  0859               	movf	dat@a,w
  1383     03E6  00D7               	movwf	??_dat
  1384     03E7  3006               	movlw	6
  1385     03E8                     u2565:
  1386     03E8  1003               	clrc
  1387     03E9  0CD7               	rrf	??_dat,f
  1388     03EA  3EFF               	addlw	-1
  1389     03EB  1D03               	skipz
  1390     03EC  2BE8               	goto	u2565
  1391     03ED  1857               	btfsc	??_dat,0
  1392     03EE  2BF0               	goto	u2571
  1393     03EF  2BF4               	goto	u2570
  1394     03F0                     u2571:
  1395     03F0  1283               	bcf	3,5	;RP0=0, select bank0
  1396     03F1  1303               	bcf	3,6	;RP1=0, select bank0
  1397     03F2  1606               	bsf	6,4	;volatile
  1398     03F3  2BF7               	goto	u2584
  1399     03F4                     u2570:
  1400     03F4  1283               	bcf	3,5	;RP0=0, select bank0
  1401     03F5  1303               	bcf	3,6	;RP1=0, select bank0
  1402     03F6  1206               	bcf	6,4	;volatile
  1403     03F7                     u2584:
  1404                           
  1405                           ;GSM3.c: 210:     RB5=(a>>7)&1;
  1406     03F7  0859               	movf	dat@a,w
  1407     03F8  00D7               	movwf	??_dat
  1408     03F9  3007               	movlw	7
  1409     03FA                     u2595:
  1410     03FA  1003               	clrc
  1411     03FB  0CD7               	rrf	??_dat,f
  1412     03FC  3EFF               	addlw	-1
  1413     03FD  1D03               	skipz
  1414     03FE  2BFA               	goto	u2595
  1415     03FF  1857               	btfsc	??_dat,0
  1416     0400  2C02               	goto	u2601
  1417     0401  2C06               	goto	u2600
  1418     0402                     u2601:
  1419     0402  1283               	bcf	3,5	;RP0=0, select bank0
  1420     0403  1303               	bcf	3,6	;RP1=0, select bank0
  1421     0404  1686               	bsf	6,5	;volatile
  1422     0405  2C09               	goto	u2614
  1423     0406                     u2600:
  1424     0406  1283               	bcf	3,5	;RP0=0, select bank0
  1425     0407  1303               	bcf	3,6	;RP1=0, select bank0
  1426     0408  1286               	bcf	6,5	;volatile
  1427     0409                     u2614:
  1428     0409                     l1967:
  1429                           
  1430                           ;GSM3.c: 211:     RB1=1;
  1431     0409  1486               	bsf	6,1	;volatile
  1432     040A                     l1969:
  1433                           
  1434                           ;GSM3.c: 212:     _delay((unsigned long)((1)*(20000000/4000.0)));
  1435     040A  3007               	movlw	7
  1436     040B  1283               	bcf	3,5	;RP0=0, select bank0
  1437     040C  1303               	bcf	3,6	;RP1=0, select bank0
  1438     040D  00D8               	movwf	??_dat+1
  1439     040E  307C               	movlw	124
  1440     040F  00D7               	movwf	??_dat
  1441     0410                     u3087:
  1442     0410  0BD7               	decfsz	??_dat,f
  1443     0411  2C10               	goto	u3087
  1444     0412  0BD8               	decfsz	??_dat+1,f
  1445     0413  2C10               	goto	u3087
  1446     0414  0000               	nop
  1447     0415                     l1971:
  1448                           
  1449                           ;GSM3.c: 213:     RB1=0;
  1450     0415  1283               	bcf	3,5	;RP0=0, select bank0
  1451     0416  1303               	bcf	3,6	;RP1=0, select bank0
  1452     0417  1086               	bcf	6,1	;volatile
  1453     0418                     l1973:
  1454                           
  1455                           ;GSM3.c: 214:     RB2=a&1;
  1456     0418  1859               	btfsc	dat@a,0
  1457     0419  2C1B               	goto	u2621
  1458     041A  2C1F               	goto	u2620
  1459     041B                     u2621:
  1460     041B  1283               	bcf	3,5	;RP0=0, select bank0
  1461     041C  1303               	bcf	3,6	;RP1=0, select bank0
  1462     041D  1506               	bsf	6,2	;volatile
  1463     041E  2C22               	goto	u2634
  1464     041F                     u2620:
  1465     041F  1283               	bcf	3,5	;RP0=0, select bank0
  1466     0420  1303               	bcf	3,6	;RP1=0, select bank0
  1467     0421  1106               	bcf	6,2	;volatile
  1468     0422                     u2634:
  1469     0422                     l1975:
  1470                           
  1471                           ;GSM3.c: 215:     RB3=(a>>1)&1;
  1472     0422  0859               	movf	dat@a,w
  1473     0423  00D7               	movwf	??_dat
  1474     0424  3001               	movlw	1
  1475     0425                     u2645:
  1476     0425  1003               	clrc
  1477     0426  0CD7               	rrf	??_dat,f
  1478     0427  3EFF               	addlw	-1
  1479     0428  1D03               	skipz
  1480     0429  2C25               	goto	u2645
  1481     042A  1857               	btfsc	??_dat,0
  1482     042B  2C2D               	goto	u2651
  1483     042C  2C31               	goto	u2650
  1484     042D                     u2651:
  1485     042D  1283               	bcf	3,5	;RP0=0, select bank0
  1486     042E  1303               	bcf	3,6	;RP1=0, select bank0
  1487     042F  1586               	bsf	6,3	;volatile
  1488     0430  2C34               	goto	u2664
  1489     0431                     u2650:
  1490     0431  1283               	bcf	3,5	;RP0=0, select bank0
  1491     0432  1303               	bcf	3,6	;RP1=0, select bank0
  1492     0433  1186               	bcf	6,3	;volatile
  1493     0434                     u2664:
  1494     0434                     l1977:
  1495                           
  1496                           ;GSM3.c: 216:     RB4=(a>>2)&1;
  1497     0434  0859               	movf	dat@a,w
  1498     0435  00D7               	movwf	??_dat
  1499     0436  3002               	movlw	2
  1500     0437                     u2675:
  1501     0437  1003               	clrc
  1502     0438  0CD7               	rrf	??_dat,f
  1503     0439  3EFF               	addlw	-1
  1504     043A  1D03               	skipz
  1505     043B  2C37               	goto	u2675
  1506     043C  1857               	btfsc	??_dat,0
  1507     043D  2C3F               	goto	u2681
  1508     043E  2C43               	goto	u2680
  1509     043F                     u2681:
  1510     043F  1283               	bcf	3,5	;RP0=0, select bank0
  1511     0440  1303               	bcf	3,6	;RP1=0, select bank0
  1512     0441  1606               	bsf	6,4	;volatile
  1513     0442  2C46               	goto	u2694
  1514     0443                     u2680:
  1515     0443  1283               	bcf	3,5	;RP0=0, select bank0
  1516     0444  1303               	bcf	3,6	;RP1=0, select bank0
  1517     0445  1206               	bcf	6,4	;volatile
  1518     0446                     u2694:
  1519     0446                     l1979:
  1520                           
  1521                           ;GSM3.c: 217:     RB5=(a>>3)&1;
  1522     0446  0859               	movf	dat@a,w
  1523     0447  00D7               	movwf	??_dat
  1524     0448  3003               	movlw	3
  1525     0449                     u2705:
  1526     0449  1003               	clrc
  1527     044A  0CD7               	rrf	??_dat,f
  1528     044B  3EFF               	addlw	-1
  1529     044C  1D03               	skipz
  1530     044D  2C49               	goto	u2705
  1531     044E  1857               	btfsc	??_dat,0
  1532     044F  2C51               	goto	u2711
  1533     0450  2C55               	goto	u2710
  1534     0451                     u2711:
  1535     0451  1283               	bcf	3,5	;RP0=0, select bank0
  1536     0452  1303               	bcf	3,6	;RP1=0, select bank0
  1537     0453  1686               	bsf	6,5	;volatile
  1538     0454  2C58               	goto	u2724
  1539     0455                     u2710:
  1540     0455  1283               	bcf	3,5	;RP0=0, select bank0
  1541     0456  1303               	bcf	3,6	;RP1=0, select bank0
  1542     0457  1286               	bcf	6,5	;volatile
  1543     0458                     u2724:
  1544     0458                     l1981:
  1545                           
  1546                           ;GSM3.c: 218:     RB1=1;
  1547     0458  1486               	bsf	6,1	;volatile
  1548                           
  1549                           ;GSM3.c: 219:     _delay((unsigned long)((1)*(20000000/4000.0)));
  1550     0459  3007               	movlw	7
  1551     045A  1283               	bcf	3,5	;RP0=0, select bank0
  1552     045B  1303               	bcf	3,6	;RP1=0, select bank0
  1553     045C  00D8               	movwf	??_dat+1
  1554     045D  307C               	movlw	124
  1555     045E  00D7               	movwf	??_dat
  1556     045F                     u3097:
  1557     045F  0BD7               	decfsz	??_dat,f
  1558     0460  2C5F               	goto	u3097
  1559     0461  0BD8               	decfsz	??_dat+1,f
  1560     0462  2C5F               	goto	u3097
  1561     0463  0000               	nop
  1562     0464                     l1983:
  1563                           
  1564                           ;GSM3.c: 220:     RB1=0;
  1565     0464  1283               	bcf	3,5	;RP0=0, select bank0
  1566     0465  1303               	bcf	3,6	;RP1=0, select bank0
  1567     0466  1086               	bcf	6,1	;volatile
  1568     0467                     l163:
  1569     0467  0008               	return
  1570     0468                     __end_of_dat:
  1571                           
  1572                           	psect	text3
  1573     077C                     __ptext3:	
  1574 ;; *************** function _lcd_init *****************
  1575 ;; Defined at:
  1576 ;;		line 175 in file "GSM3.c"
  1577 ;; Parameters:    Size  Location     Type
  1578 ;;		None
  1579 ;; Auto vars:     Size  Location     Type
  1580 ;;		None
  1581 ;; Return value:  Size  Location     Type
  1582 ;;                  1    wreg      void 
  1583 ;; Registers used:
  1584 ;;		wreg, status,2, status,0, pclath, cstack
  1585 ;; Tracked objects:
  1586 ;;		On entry : 0/0
  1587 ;;		On exit  : 0/0
  1588 ;;		Unchanged: 0/0
  1589 ;; Data sizes:     COMMON   BANK0   BANK1   BANK3   BANK2
  1590 ;;      Params:         0       0       0       0       0
  1591 ;;      Locals:         0       0       0       0       0
  1592 ;;      Temps:          0       2       0       0       0
  1593 ;;      Totals:         0       2       0       0       0
  1594 ;;Total ram usage:        2 bytes
  1595 ;; Hardware stack levels used: 1
  1596 ;; Hardware stack levels required when called: 4
  1597 ;; This function calls:
  1598 ;;		_cmd
  1599 ;; This function is called by:
  1600 ;;		_main
  1601 ;; This function uses a non-reentrant model
  1602 ;;
  1603                           
  1604     077C                     _lcd_init:	
  1605                           ;psect for function _lcd_init
  1606                           
  1607     077C                     l2011:	
  1608                           ;incstack = 0
  1609                           ; Regs used in _lcd_init: [wreg+status,2+status,0+pclath+cstack]
  1610                           
  1611                           
  1612                           ;GSM3.c: 177:     cmd(0x02);
  1613     077C  3002               	movlw	2
  1614     077D  120A  118A  2468  120A  118A  	fcall	_cmd
  1615                           
  1616                           ;GSM3.c: 178:     cmd(0x28);
  1617     0782  3028               	movlw	40
  1618     0783  120A  118A  2468  120A  118A  	fcall	_cmd
  1619                           
  1620                           ;GSM3.c: 179:     cmd(0x0c);
  1621     0788  300C               	movlw	12
  1622     0789  120A  118A  2468  120A  118A  	fcall	_cmd
  1623                           
  1624                           ;GSM3.c: 180:     cmd(0x06);
  1625     078E  3006               	movlw	6
  1626     078F  120A  118A  2468  120A  118A  	fcall	_cmd
  1627                           
  1628                           ;GSM3.c: 181:     cmd(0x01);
  1629     0794  3001               	movlw	1
  1630     0795  120A  118A  2468  120A  118A  	fcall	_cmd
  1631     079A                     l2013:
  1632                           
  1633                           ;GSM3.c: 182:     _delay((unsigned long)((2)*(20000000/4000.0)));
  1634     079A  300D               	movlw	13
  1635     079B  1283               	bcf	3,5	;RP0=0, select bank0
  1636     079C  1303               	bcf	3,6	;RP1=0, select bank0
  1637     079D  00DB               	movwf	??_lcd_init+1
  1638     079E  30FB               	movlw	251
  1639     079F  00DA               	movwf	??_lcd_init
  1640     07A0                     u3107:
  1641     07A0  0BDA               	decfsz	??_lcd_init,f
  1642     07A1  2FA0               	goto	u3107
  1643     07A2  0BDB               	decfsz	??_lcd_init+1,f
  1644     07A3  2FA0               	goto	u3107
  1645     07A4                     l157:
  1646     07A4  0008               	return
  1647     07A5                     __end_of_lcd_init:
  1648                           
  1649                           	psect	text4
  1650     015D                     __ptext4:	
  1651 ;; *************** function _key *****************
  1652 ;; Defined at:
  1653 ;;		line 288 in file "GSM3.c"
  1654 ;; Parameters:    Size  Location     Type
  1655 ;;		None
  1656 ;; Auto vars:     Size  Location     Type
  1657 ;;		None
  1658 ;; Return value:  Size  Location     Type
  1659 ;;                  1    wreg      unsigned char 
  1660 ;; Registers used:
  1661 ;;		wreg, fsr0l, fsr0h, status,2, status,0, btemp+1, pclath, cstack
  1662 ;; Tracked objects:
  1663 ;;		On entry : 0/0
  1664 ;;		On exit  : 0/0
  1665 ;;		Unchanged: 0/0
  1666 ;; Data sizes:     COMMON   BANK0   BANK1   BANK3   BANK2
  1667 ;;      Params:         0       0       0       0       0
  1668 ;;      Locals:         0       0       0       0       0
  1669 ;;      Temps:          0       0       0       0       0
  1670 ;;      Totals:         0       0       0       0       0
  1671 ;;Total ram usage:        0 bytes
  1672 ;; Hardware stack levels used: 1
  1673 ;; Hardware stack levels required when called: 8
  1674 ;; This function calls:
  1675 ;;		_printf
  1676 ;; This function is called by:
  1677 ;;		_main
  1678 ;; This function uses a non-reentrant model
  1679 ;;
  1680                           
  1681     015D                     _key:	
  1682                           ;psect for function _key
  1683                           
  1684     015D                     l200:	
  1685                           ;incstack = 0
  1686 ;; hardware stack exceeded
  1687                           ; Regs used in _key: [wreg-fsr0h+status,2+status,0+btemp+1+pclath+cstack]
  1688                           ;GSM3.c: 289:     while(1){
  1689                           
  1690                           
  1691                           ;GSM3.c: 290:         RD0=1;RD1=RD2=RD3=0;
  1692     015D  1283               	bcf	3,5	;RP0=0, select bank0
  1693     015E  1303               	bcf	3,6	;RP1=0, select bank0
  1694     015F  1408               	bsf	8,0	;volatile
  1695     0160  1188               	bcf	8,3	;volatile
  1696     0161  1108               	bcf	8,2	;volatile
  1697     0162  1088               	bcf	8,1	;volatile
  1698                           
  1699                           ;GSM3.c: 291:         if(RD4==1){
  1700     0163  1E08               	btfss	8,4	;volatile
  1701     0164  2966               	goto	u2741
  1702     0165  2967               	goto	u2740
  1703     0166                     u2741:
  1704     0166  2976               	goto	l201
  1705     0167                     u2740:
  1706     0167  296E               	goto	l2027
  1707     0168                     l2025:
  1708                           
  1709                           ;GSM3.c: 293:                 printf("\a");
  1710     0168  30AA               	movlw	(low ((STR_27-__stringbase)| (0+32768)))& (0+255)
  1711     0169  120A  118A  22C5  120A  118A  	fcall	_printf
  1712     016E                     l2027:
  1713                           
  1714                           ;GSM3.c: 292:             while(RD4)
  1715     016E  1283               	bcf	3,5	;RP0=0, select bank0
  1716     016F  1303               	bcf	3,6	;RP1=0, select bank0
  1717     0170  1A08               	btfsc	8,4	;volatile
  1718     0171  2973               	goto	u2751
  1719     0172  2974               	goto	u2750
  1720     0173                     u2751:
  1721     0173  2968               	goto	l2025
  1722     0174                     u2750:
  1723     0174                     l2029:
  1724                           
  1725                           ;GSM3.c: 294:             return '1';
  1726     0174  3031               	movlw	49
  1727     0175  2A52               	goto	l205
  1728     0176                     l201:	
  1729                           ;GSM3.c: 295:         }
  1730                           
  1731                           
  1732                           ;GSM3.c: 296:         if(RD5==1){
  1733     0176  1E88               	btfss	8,5	;volatile
  1734     0177  2979               	goto	u2761
  1735     0178  297A               	goto	u2760
  1736     0179                     u2761:
  1737     0179  2989               	goto	l206
  1738     017A                     u2760:
  1739     017A  2981               	goto	l2037
  1740     017B                     l2035:
  1741                           
  1742                           ;GSM3.c: 298:                 printf("\a");
  1743     017B  30AA               	movlw	(low ((STR_27-__stringbase)| (0+32768)))& (0+255)
  1744     017C  120A  118A  22C5  120A  118A  	fcall	_printf
  1745     0181                     l2037:
  1746                           
  1747                           ;GSM3.c: 297:             while(RD5)
  1748     0181  1283               	bcf	3,5	;RP0=0, select bank0
  1749     0182  1303               	bcf	3,6	;RP1=0, select bank0
  1750     0183  1A88               	btfsc	8,5	;volatile
  1751     0184  2986               	goto	u2771
  1752     0185  2987               	goto	u2770
  1753     0186                     u2771:
  1754     0186  297B               	goto	l2035
  1755     0187                     u2770:
  1756     0187                     l2039:
  1757                           
  1758                           ;GSM3.c: 299:             return '2';
  1759     0187  3032               	movlw	50
  1760     0188  2A52               	goto	l205
  1761     0189                     l206:	
  1762                           ;GSM3.c: 300:         }
  1763                           
  1764                           
  1765                           ;GSM3.c: 301:         if(RD7==1){
  1766     0189  1F88               	btfss	8,7	;volatile
  1767     018A  298C               	goto	u2781
  1768     018B  298D               	goto	u2780
  1769     018C                     u2781:
  1770     018C  299C               	goto	l210
  1771     018D                     u2780:
  1772     018D  2994               	goto	l2047
  1773     018E                     l2045:
  1774                           
  1775                           ;GSM3.c: 303:                 printf("\a");
  1776     018E  30AA               	movlw	(low ((STR_27-__stringbase)| (0+32768)))& (0+255)
  1777     018F  120A  118A  22C5  120A  118A  	fcall	_printf
  1778     0194                     l2047:
  1779                           
  1780                           ;GSM3.c: 302:             while(RD7)
  1781     0194  1283               	bcf	3,5	;RP0=0, select bank0
  1782     0195  1303               	bcf	3,6	;RP1=0, select bank0
  1783     0196  1B88               	btfsc	8,7	;volatile
  1784     0197  2999               	goto	u2791
  1785     0198  299A               	goto	u2790
  1786     0199                     u2791:
  1787     0199  298E               	goto	l2045
  1788     019A                     u2790:
  1789     019A                     l2049:
  1790                           
  1791                           ;GSM3.c: 304:             return '3';
  1792     019A  3033               	movlw	51
  1793     019B  2A52               	goto	l205
  1794     019C                     l210:	
  1795                           ;GSM3.c: 305:         }
  1796                           
  1797                           
  1798                           ;GSM3.c: 306:         RD1=1;RD0=RD2=RD3=0;
  1799     019C  1488               	bsf	8,1	;volatile
  1800     019D  1188               	bcf	8,3	;volatile
  1801     019E  1108               	bcf	8,2	;volatile
  1802     019F  1008               	bcf	8,0	;volatile
  1803                           
  1804                           ;GSM3.c: 307:         if(RD4==1){
  1805     01A0  1E08               	btfss	8,4	;volatile
  1806     01A1  29A3               	goto	u2801
  1807     01A2  29A4               	goto	u2800
  1808     01A3                     u2801:
  1809     01A3  29B3               	goto	l214
  1810     01A4                     u2800:
  1811     01A4  29AB               	goto	l2057
  1812     01A5                     l2055:
  1813                           
  1814                           ;GSM3.c: 309:                 printf("\a");
  1815     01A5  30AA               	movlw	(low ((STR_27-__stringbase)| (0+32768)))& (0+255)
  1816     01A6  120A  118A  22C5  120A  118A  	fcall	_printf
  1817     01AB                     l2057:
  1818                           
  1819                           ;GSM3.c: 308:             while(RD4)
  1820     01AB  1283               	bcf	3,5	;RP0=0, select bank0
  1821     01AC  1303               	bcf	3,6	;RP1=0, select bank0
  1822     01AD  1A08               	btfsc	8,4	;volatile
  1823     01AE  29B0               	goto	u2811
  1824     01AF  29B1               	goto	u2810
  1825     01B0                     u2811:
  1826     01B0  29A5               	goto	l2055
  1827     01B1                     u2810:
  1828     01B1                     l2059:
  1829                           
  1830                           ;GSM3.c: 310:             return '4';
  1831     01B1  3034               	movlw	52
  1832     01B2  2A52               	goto	l205
  1833     01B3                     l214:	
  1834                           ;GSM3.c: 311:         }
  1835                           
  1836                           
  1837                           ;GSM3.c: 312:         if(RD5==1){
  1838     01B3  1E88               	btfss	8,5	;volatile
  1839     01B4  29B6               	goto	u2821
  1840     01B5  29B7               	goto	u2820
  1841     01B6                     u2821:
  1842     01B6  29C6               	goto	l218
  1843     01B7                     u2820:
  1844     01B7  29BE               	goto	l2067
  1845     01B8                     l2065:
  1846                           
  1847                           ;GSM3.c: 314:                 printf("\a");
  1848     01B8  30AA               	movlw	(low ((STR_27-__stringbase)| (0+32768)))& (0+255)
  1849     01B9  120A  118A  22C5  120A  118A  	fcall	_printf
  1850     01BE                     l2067:
  1851                           
  1852                           ;GSM3.c: 313:             while(RD5)
  1853     01BE  1283               	bcf	3,5	;RP0=0, select bank0
  1854     01BF  1303               	bcf	3,6	;RP1=0, select bank0
  1855     01C0  1A88               	btfsc	8,5	;volatile
  1856     01C1  29C3               	goto	u2831
  1857     01C2  29C4               	goto	u2830
  1858     01C3                     u2831:
  1859     01C3  29B8               	goto	l2065
  1860     01C4                     u2830:
  1861     01C4                     l2069:
  1862                           
  1863                           ;GSM3.c: 315:             return '5';
  1864     01C4  3035               	movlw	53
  1865     01C5  2A52               	goto	l205
  1866     01C6                     l218:	
  1867                           ;GSM3.c: 316:         }
  1868                           
  1869                           
  1870                           ;GSM3.c: 317:         if(RD7==1){
  1871     01C6  1F88               	btfss	8,7	;volatile
  1872     01C7  29C9               	goto	u2841
  1873     01C8  29CA               	goto	u2840
  1874     01C9                     u2841:
  1875     01C9  29D9               	goto	l222
  1876     01CA                     u2840:
  1877     01CA  29D1               	goto	l2077
  1878     01CB                     l2075:
  1879                           
  1880                           ;GSM3.c: 319:                 printf("\a");
  1881     01CB  30AA               	movlw	(low ((STR_27-__stringbase)| (0+32768)))& (0+255)
  1882     01CC  120A  118A  22C5  120A  118A  	fcall	_printf
  1883     01D1                     l2077:
  1884                           
  1885                           ;GSM3.c: 318:             while(RD7)
  1886     01D1  1283               	bcf	3,5	;RP0=0, select bank0
  1887     01D2  1303               	bcf	3,6	;RP1=0, select bank0
  1888     01D3  1B88               	btfsc	8,7	;volatile
  1889     01D4  29D6               	goto	u2851
  1890     01D5  29D7               	goto	u2850
  1891     01D6                     u2851:
  1892     01D6  29CB               	goto	l2075
  1893     01D7                     u2850:
  1894     01D7                     l2079:
  1895                           
  1896                           ;GSM3.c: 320:             return '6';
  1897     01D7  3036               	movlw	54
  1898     01D8  2A52               	goto	l205
  1899     01D9                     l222:	
  1900                           ;GSM3.c: 321:         }
  1901                           
  1902                           
  1903                           ;GSM3.c: 322:          RD2=1;RD0=RD1=RD3=0;
  1904     01D9  1508               	bsf	8,2	;volatile
  1905     01DA  1188               	bcf	8,3	;volatile
  1906     01DB  1088               	bcf	8,1	;volatile
  1907     01DC  1008               	bcf	8,0	;volatile
  1908                           
  1909                           ;GSM3.c: 323:         if(RD4==1){
  1910     01DD  1E08               	btfss	8,4	;volatile
  1911     01DE  29E0               	goto	u2861
  1912     01DF  29E1               	goto	u2860
  1913     01E0                     u2861:
  1914     01E0  29F0               	goto	l226
  1915     01E1                     u2860:
  1916     01E1  29E8               	goto	l2087
  1917     01E2                     l2085:
  1918                           
  1919                           ;GSM3.c: 325:                 printf("\a");
  1920     01E2  30AA               	movlw	(low ((STR_27-__stringbase)| (0+32768)))& (0+255)
  1921     01E3  120A  118A  22C5  120A  118A  	fcall	_printf
  1922     01E8                     l2087:
  1923                           
  1924                           ;GSM3.c: 324:             while(RD4)
  1925     01E8  1283               	bcf	3,5	;RP0=0, select bank0
  1926     01E9  1303               	bcf	3,6	;RP1=0, select bank0
  1927     01EA  1A08               	btfsc	8,4	;volatile
  1928     01EB  29ED               	goto	u2871
  1929     01EC  29EE               	goto	u2870
  1930     01ED                     u2871:
  1931     01ED  29E2               	goto	l2085
  1932     01EE                     u2870:
  1933     01EE                     l2089:
  1934                           
  1935                           ;GSM3.c: 326:             return '7';
  1936     01EE  3037               	movlw	55
  1937     01EF  2A52               	goto	l205
  1938     01F0                     l226:	
  1939                           ;GSM3.c: 327:         }
  1940                           
  1941                           
  1942                           ;GSM3.c: 328:         if(RD5==1){
  1943     01F0  1E88               	btfss	8,5	;volatile
  1944     01F1  29F3               	goto	u2881
  1945     01F2  29F4               	goto	u2880
  1946     01F3                     u2881:
  1947     01F3  2A03               	goto	l230
  1948     01F4                     u2880:
  1949     01F4  29FB               	goto	l2097
  1950     01F5                     l2095:
  1951                           
  1952                           ;GSM3.c: 330:                 printf("\a");
  1953     01F5  30AA               	movlw	(low ((STR_27-__stringbase)| (0+32768)))& (0+255)
  1954     01F6  120A  118A  22C5  120A  118A  	fcall	_printf
  1955     01FB                     l2097:
  1956                           
  1957                           ;GSM3.c: 329:             while(RD5)
  1958     01FB  1283               	bcf	3,5	;RP0=0, select bank0
  1959     01FC  1303               	bcf	3,6	;RP1=0, select bank0
  1960     01FD  1A88               	btfsc	8,5	;volatile
  1961     01FE  2A00               	goto	u2891
  1962     01FF  2A01               	goto	u2890
  1963     0200                     u2891:
  1964     0200  29F5               	goto	l2095
  1965     0201                     u2890:
  1966     0201                     l2099:
  1967                           
  1968                           ;GSM3.c: 331:             return '8';
  1969     0201  3038               	movlw	56
  1970     0202  2A52               	goto	l205
  1971     0203                     l230:	
  1972                           ;GSM3.c: 332:         }
  1973                           
  1974                           
  1975                           ;GSM3.c: 333:         if(RD7==1){
  1976     0203  1F88               	btfss	8,7	;volatile
  1977     0204  2A06               	goto	u2901
  1978     0205  2A07               	goto	u2900
  1979     0206                     u2901:
  1980     0206  2A16               	goto	l234
  1981     0207                     u2900:
  1982     0207  2A0E               	goto	l2107
  1983     0208                     l2105:
  1984                           
  1985                           ;GSM3.c: 335:                 printf("\a");
  1986     0208  30AA               	movlw	(low ((STR_27-__stringbase)| (0+32768)))& (0+255)
  1987     0209  120A  118A  22C5  120A  118A  	fcall	_printf
  1988     020E                     l2107:
  1989                           
  1990                           ;GSM3.c: 334:             while(RD7)
  1991     020E  1283               	bcf	3,5	;RP0=0, select bank0
  1992     020F  1303               	bcf	3,6	;RP1=0, select bank0
  1993     0210  1B88               	btfsc	8,7	;volatile
  1994     0211  2A13               	goto	u2911
  1995     0212  2A14               	goto	u2910
  1996     0213                     u2911:
  1997     0213  2A08               	goto	l2105
  1998     0214                     u2910:
  1999     0214                     l2109:
  2000                           
  2001                           ;GSM3.c: 336:             return '9';
  2002     0214  3039               	movlw	57
  2003     0215  2A52               	goto	l205
  2004     0216                     l234:	
  2005                           ;GSM3.c: 337:         }
  2006                           
  2007                           
  2008                           ;GSM3.c: 338:          RD3=1;RD0=RD1=RD2=0;
  2009     0216  1588               	bsf	8,3	;volatile
  2010     0217  1108               	bcf	8,2	;volatile
  2011     0218  1088               	bcf	8,1	;volatile
  2012     0219  1008               	bcf	8,0	;volatile
  2013                           
  2014                           ;GSM3.c: 339:         if(RD4==1){
  2015     021A  1E08               	btfss	8,4	;volatile
  2016     021B  2A1D               	goto	u2921
  2017     021C  2A1E               	goto	u2920
  2018     021D                     u2921:
  2019     021D  2A2D               	goto	l238
  2020     021E                     u2920:
  2021     021E  2A25               	goto	l2117
  2022     021F                     l2115:
  2023                           
  2024                           ;GSM3.c: 341:                 printf("\a");
  2025     021F  30AA               	movlw	(low ((STR_27-__stringbase)| (0+32768)))& (0+255)
  2026     0220  120A  118A  22C5  120A  118A  	fcall	_printf
  2027     0225                     l2117:
  2028                           
  2029                           ;GSM3.c: 340:             while(RD4)
  2030     0225  1283               	bcf	3,5	;RP0=0, select bank0
  2031     0226  1303               	bcf	3,6	;RP1=0, select bank0
  2032     0227  1A08               	btfsc	8,4	;volatile
  2033     0228  2A2A               	goto	u2931
  2034     0229  2A2B               	goto	u2930
  2035     022A                     u2931:
  2036     022A  2A1F               	goto	l2115
  2037     022B                     u2930:
  2038     022B                     l2119:
  2039                           
  2040                           ;GSM3.c: 342:             return '*';
  2041     022B  302A               	movlw	42
  2042     022C  2A52               	goto	l205
  2043     022D                     l238:	
  2044                           ;GSM3.c: 343:         }
  2045                           
  2046                           
  2047                           ;GSM3.c: 344:         if(RD5==1){
  2048     022D  1E88               	btfss	8,5	;volatile
  2049     022E  2A30               	goto	u2941
  2050     022F  2A31               	goto	u2940
  2051     0230                     u2941:
  2052     0230  2A40               	goto	l242
  2053     0231                     u2940:
  2054     0231  2A38               	goto	l2127
  2055     0232                     l2125:
  2056                           
  2057                           ;GSM3.c: 346:                 printf("\a");
  2058     0232  30AA               	movlw	(low ((STR_27-__stringbase)| (0+32768)))& (0+255)
  2059     0233  120A  118A  22C5  120A  118A  	fcall	_printf
  2060     0238                     l2127:
  2061                           
  2062                           ;GSM3.c: 345:             while(RD5)
  2063     0238  1283               	bcf	3,5	;RP0=0, select bank0
  2064     0239  1303               	bcf	3,6	;RP1=0, select bank0
  2065     023A  1A88               	btfsc	8,5	;volatile
  2066     023B  2A3D               	goto	u2951
  2067     023C  2A3E               	goto	u2950
  2068     023D                     u2951:
  2069     023D  2A32               	goto	l2125
  2070     023E                     u2950:
  2071     023E                     l2129:
  2072                           
  2073                           ;GSM3.c: 347:             return '0';
  2074     023E  3030               	movlw	48
  2075     023F  2A52               	goto	l205
  2076     0240                     l242:	
  2077                           ;GSM3.c: 348:         }
  2078                           
  2079                           
  2080                           ;GSM3.c: 349:         if(RD7==1){
  2081     0240  1F88               	btfss	8,7	;volatile
  2082     0241  2A43               	goto	u2961
  2083     0242  2A44               	goto	u2960
  2084     0243                     u2961:
  2085     0243  295D               	goto	l200
  2086     0244                     u2960:
  2087     0244  2A4B               	goto	l2137
  2088     0245                     l2135:
  2089                           
  2090                           ;GSM3.c: 351:                 printf("\a");
  2091     0245  30AA               	movlw	(low ((STR_27-__stringbase)| (0+32768)))& (0+255)
  2092     0246  120A  118A  22C5  120A  118A  	fcall	_printf
  2093     024B                     l2137:
  2094                           
  2095                           ;GSM3.c: 350:             while(RD7)
  2096     024B  1283               	bcf	3,5	;RP0=0, select bank0
  2097     024C  1303               	bcf	3,6	;RP1=0, select bank0
  2098     024D  1B88               	btfsc	8,7	;volatile
  2099     024E  2A50               	goto	u2971
  2100     024F  2A51               	goto	u2970
  2101     0250                     u2971:
  2102     0250  2A45               	goto	l2135
  2103     0251                     u2970:
  2104     0251                     l2139:
  2105                           
  2106                           ;GSM3.c: 352:             return '#';
  2107     0251  3023               	movlw	35
  2108     0252                     l205:
  2109     0252  0008               	return
  2110     0253                     __end_of_key:
  2111                           
  2112                           	psect	text5
  2113     02C5                     __ptext5:	
  2114 ;; *************** function _printf *****************
  2115 ;; Defined at:
  2116 ;;		line 5 in file "C:\Program Files\Microchip\xc8\v2.45\pic\sources\c99\common\printf.c"
  2117 ;; Parameters:    Size  Location     Type
  2118 ;;  fmt             1    wreg     PTR const unsigned char 
  2119 ;;		 -> STR_38(2), STR_37(2), STR_36(2), STR_35(2), 
  2120 ;;		 -> STR_34(2), STR_33(2), STR_32(2), STR_31(2), 
  2121 ;;		 -> STR_30(2), STR_29(2), STR_28(2), STR_27(2), 
  2122 ;; Auto vars:     Size  Location     Type
  2123 ;;  fmt             1   22[BANK0 ] PTR const unsigned char 
  2124 ;;		 -> STR_38(2), STR_37(2), STR_36(2), STR_35(2), 
  2125 ;;		 -> STR_34(2), STR_33(2), STR_32(2), STR_31(2), 
  2126 ;;		 -> STR_30(2), STR_29(2), STR_28(2), STR_27(2), 
  2127 ;;  ret             2    0        int 
  2128 ;;  ap              1   21[BANK0 ] PTR void [1]
  2129 ;;		 -> ?_printf(2), 
  2130 ;; Return value:  Size  Location     Type
  2131 ;;                  2   86[None  ] int 
  2132 ;; Registers used:
  2133 ;;		wreg, fsr0l, fsr0h, status,2, status,0, btemp+1, pclath, cstack
  2134 ;; Tracked objects:
  2135 ;;		On entry : 0/0
  2136 ;;		On exit  : 0/0
  2137 ;;		Unchanged: 0/0
  2138 ;; Data sizes:     COMMON   BANK0   BANK1   BANK3   BANK2
  2139 ;;      Params:         0       0       0       0       0
  2140 ;;      Locals:         0       2       0       0       0
  2141 ;;      Temps:          0       0       0       0       0
  2142 ;;      Totals:         0       2       0       0       0
  2143 ;;Total ram usage:        2 bytes
  2144 ;; Hardware stack levels used: 1
  2145 ;; Hardware stack levels required when called: 7
  2146 ;; This function calls:
  2147 ;;		_vfprintf
  2148 ;; This function is called by:
  2149 ;;		_key
  2150 ;; This function uses a non-reentrant model
  2151 ;;
  2152                           
  2153     02C5                     _printf:	
  2154                           ;psect for function _printf
  2155                           
  2156                           
  2157                           ;incstack = 0
  2158 ;; hardware stack exceeded
  2159                           ; Regs used in _printf: [wreg-fsr0h+status,2+status,0+btemp+1+pclath+cstack]
  2160                           ;printf@fmt stored from wreg
  2161     02C5  1283               	bcf	3,5	;RP0=0, select bank0
  2162     02C6  1303               	bcf	3,6	;RP1=0, select bank0
  2163     02C7  00E9               	movwf	printf@fmt
  2164     02C8                     l1985:
  2165     02C8  3070               	movlw	(low (?_printf| 0))& (0+255)
  2166     02C9  00E8               	movwf	printf@ap
  2167     02CA                     l1987:
  2168     02CA  0869               	movf	printf@fmt,w
  2169     02CB  00E4               	movwf	vfprintf@fmt
  2170     02CC  3068               	movlw	(low (printf@ap| 0))& (0+255)
  2171     02CD  00E5               	movwf	vfprintf@ap
  2172     02CE  3000               	movlw	0
  2173     02CF  120A  118A  2276  120A  118A  	fcall	_vfprintf
  2174     02D4                     l800:
  2175     02D4  0008               	return
  2176     02D5                     __end_of_printf:
  2177                           
  2178                           	psect	text6
  2179     0276                     __ptext6:	
  2180 ;; *************** function _vfprintf *****************
  2181 ;; Defined at:
  2182 ;;		line 1817 in file "C:\Program Files\Microchip\xc8\v2.45\pic\sources\c99\common\doprnt.c"
  2183 ;; Parameters:    Size  Location     Type
  2184 ;;  fp              1    wreg     PTR struct _IO_FILE
  2185 ;;		 -> NULL(0), 
  2186 ;;  fmt             1   17[BANK0 ] PTR const unsigned char 
  2187 ;;		 -> STR_38(2), STR_37(2), STR_36(2), STR_35(2), 
  2188 ;;		 -> STR_34(2), STR_33(2), STR_32(2), STR_31(2), 
  2189 ;;		 -> STR_30(2), STR_29(2), STR_28(2), STR_27(2), 
  2190 ;;  ap              1   18[BANK0 ] PTR PTR void 
  2191 ;;		 -> printf@ap(1), 
  2192 ;; Auto vars:     Size  Location     Type
  2193 ;;  fp              1   19[BANK0 ] PTR struct _IO_FILE
  2194 ;;		 -> NULL(0), 
  2195 ;;  cfmt            1   20[BANK0 ] PTR unsigned char 
  2196 ;;		 -> STR_38(2), STR_37(2), STR_36(2), STR_35(2), 
  2197 ;;		 -> STR_34(2), STR_33(2), STR_32(2), STR_31(2), 
  2198 ;;		 -> STR_30(2), STR_29(2), STR_28(2), STR_27(2), 
  2199 ;; Return value:  Size  Location     Type
  2200 ;;                  2   17[BANK0 ] int 
  2201 ;; Registers used:
  2202 ;;		wreg, fsr0l, fsr0h, status,2, status,0, btemp+1, pclath, cstack
  2203 ;; Tracked objects:
  2204 ;;		On entry : 0/0
  2205 ;;		On exit  : 0/0
  2206 ;;		Unchanged: 0/0
  2207 ;; Data sizes:     COMMON   BANK0   BANK1   BANK3   BANK2
  2208 ;;      Params:         0       2       0       0       0
  2209 ;;      Locals:         0       2       0       0       0
  2210 ;;      Temps:          0       0       0       0       0
  2211 ;;      Totals:         0       4       0       0       0
  2212 ;;Total ram usage:        4 bytes
  2213 ;; Hardware stack levels used: 1
  2214 ;; Hardware stack levels required when called: 6
  2215 ;; This function calls:
  2216 ;;		_vfpfcnvrt
  2217 ;; This function is called by:
  2218 ;;		_printf
  2219 ;; This function uses a non-reentrant model
  2220 ;;
  2221                           
  2222     0276                     _vfprintf:	
  2223                           ;psect for function _vfprintf
  2224                           
  2225                           
  2226                           ;incstack = 0
  2227 ;; hardware stack exceeded
  2228                           ; Regs used in _vfprintf: [wreg-fsr0h+status,2+status,0+btemp+1+pclath+cstack]
  2229                           ;vfprintf@fp stored from wreg
  2230     0276  1283               	bcf	3,5	;RP0=0, select bank0
  2231     0277  1303               	bcf	3,6	;RP1=0, select bank0
  2232     0278  00E6               	movwf	vfprintf@fp
  2233     0279                     l1923:
  2234                           
  2235                           ;C:\Program Files\Microchip\xc8\v2.45\pic\sources\c99\common\doprnt.c: 1817: int vfprint
      +                          f(FILE *fp, const char *fmt, va_list ap);C:\Program Files\Microchip\xc8\v2.45\pic\source
      +                          s\c99\common\doprnt.c: 1818: {;C:\Program Files\Microchip\xc8\v2.45\pic\sources\c99\comm
      +                          on\doprnt.c: 1820:     char *cfmt;;C:\Program Files\Microchip\xc8\v2.45\pic\sources\c99\
      +                          common\doprnt.c: 1822:     cfmt = (char *)fmt;
  2236     0279  0864               	movf	vfprintf@fmt,w
  2237     027A  00E7               	movwf	vfprintf@cfmt
  2238                           
  2239                           ;C:\Program Files\Microchip\xc8\v2.45\pic\sources\c99\common\doprnt.c: 1826:     while (
      +                          *cfmt) {
  2240     027B  2A86               	goto	l1927
  2241     027C                     l1925:
  2242                           
  2243                           ;C:\Program Files\Microchip\xc8\v2.45\pic\sources\c99\common\doprnt.c: 1830:    vfpfcnvr
      +                          t(fp, &cfmt, ap);
  2244     027C  3067               	movlw	(low (vfprintf@cfmt| 0))& (0+255)
  2245     027D  00DF               	movwf	vfpfcnvrt@fmt
  2246     027E  0865               	movf	vfprintf@ap,w
  2247     027F  00E0               	movwf	vfpfcnvrt@ap
  2248     0280  0866               	movf	vfprintf@fp,w
  2249     0281  120A  118A  26C4  120A  118A  	fcall	_vfpfcnvrt
  2250     0286                     l1927:
  2251                           
  2252                           ;C:\Program Files\Microchip\xc8\v2.45\pic\sources\c99\common\doprnt.c: 1826:     while (
      +                          *cfmt) {
  2253     0286  1283               	bcf	3,5	;RP0=0, select bank0
  2254     0287  1303               	bcf	3,6	;RP1=0, select bank0
  2255     0288  0867               	movf	vfprintf@cfmt,w
  2256     0289  0084               	movwf	4
  2257     028A  120A  118A  230A  120A  118A  	fcall	stringdir
  2258     028F  3A00               	xorlw	0
  2259     0290  1D03               	skipz
  2260     0291  2A93               	goto	u2241
  2261     0292  2A94               	goto	u2240
  2262     0293                     u2241:
  2263     0293  2A7C               	goto	l1925
  2264     0294                     u2240:
  2265     0294                     l1929:
  2266                           
  2267                           ;C:\Program Files\Microchip\xc8\v2.45\pic\sources\c99\common\doprnt.c: 1835:  return 0;
  2268     0294  01E4               	clrf	?_vfprintf
  2269     0295  01E5               	clrf	?_vfprintf+1
  2270     0296                     l829:
  2271     0296  0008               	return
  2272     0297                     __end_of_vfprintf:
  2273                           
  2274                           	psect	text7
  2275     06C4                     __ptext7:	
  2276 ;; *************** function _vfpfcnvrt *****************
  2277 ;; Defined at:
  2278 ;;		line 1177 in file "C:\Program Files\Microchip\xc8\v2.45\pic\sources\c99\common\doprnt.c"
  2279 ;; Parameters:    Size  Location     Type
  2280 ;;  fp              1    wreg     PTR struct _IO_FILE
  2281 ;;		 -> NULL(0), 
  2282 ;;  fmt             1   12[BANK0 ] PTR PTR unsigned char 
  2283 ;;		 -> vfprintf@cfmt(1), 
  2284 ;;  ap              1   13[BANK0 ] PTR PTR void 
  2285 ;;		 -> printf@ap(1), 
  2286 ;; Auto vars:     Size  Location     Type
  2287 ;;  fp              1   16[BANK0 ] PTR struct _IO_FILE
  2288 ;;		 -> NULL(0), 
  2289 ;;  cp              2    0        PTR unsigned char 
  2290 ;;  done            1    0        _Bool 
  2291 ;;  c               1    0        unsigned char 
  2292 ;; Return value:  Size  Location     Type
  2293 ;;                  1    wreg      void 
  2294 ;; Registers used:
  2295 ;;		wreg, fsr0l, fsr0h, status,2, status,0, btemp+1, pclath, cstack
  2296 ;; Tracked objects:
  2297 ;;		On entry : 0/0
  2298 ;;		On exit  : 0/0
  2299 ;;		Unchanged: 0/0
  2300 ;; Data sizes:     COMMON   BANK0   BANK1   BANK3   BANK2
  2301 ;;      Params:         0       2       0       0       0
  2302 ;;      Locals:         0       1       0       0       0
  2303 ;;      Temps:          0       2       0       0       0
  2304 ;;      Totals:         0       5       0       0       0
  2305 ;;Total ram usage:        5 bytes
  2306 ;; Hardware stack levels used: 1
  2307 ;; Hardware stack levels required when called: 5
  2308 ;; This function calls:
  2309 ;;		_fputc
  2310 ;; This function is called by:
  2311 ;;		_vfprintf
  2312 ;; This function uses a non-reentrant model
  2313 ;;
  2314                           
  2315     06C4                     _vfpfcnvrt:	
  2316                           ;psect for function _vfpfcnvrt
  2317                           
  2318                           
  2319                           ;incstack = 0
  2320 ;; hardware stack exceeded
  2321                           ; Regs used in _vfpfcnvrt: [wreg-fsr0h+status,2+status,0+btemp+1+pclath+cstack]
  2322                           ;vfpfcnvrt@fp stored from wreg
  2323     06C4  1283               	bcf	3,5	;RP0=0, select bank0
  2324     06C5  1303               	bcf	3,6	;RP1=0, select bank0
  2325     06C6  00E3               	movwf	vfpfcnvrt@fp
  2326     06C7                     l1905:
  2327                           
  2328                           ;C:\Program Files\Microchip\xc8\v2.45\pic\sources\c99\common\doprnt.c: 1177: vfpfcnvrt(F
      +                          ILE *fp, char *fmt[], va_list ap);C:\Program Files\Microchip\xc8\v2.45\pic\sources\c99\c
      +                          ommon\doprnt.c: 1178: {;C:\Program Files\Microchip\xc8\v2.45\pic\sources\c99\common\dopr
      +                          nt.c: 1179:     char c, *cp;;C:\Program Files\Microchip\xc8\v2.45\pic\sources\c99\common
      +                          \doprnt.c: 1180:     _Bool done;;C:\Program Files\Microchip\xc8\v2.45\pic\sources\c99\co
      +                          mmon\doprnt.c: 1201:     if ((*fmt)[0] == '%') {
  2329     06C7  085F               	movf	vfpfcnvrt@fmt,w
  2330     06C8  0084               	movwf	4
  2331     06C9  1383               	bcf	3,7	;select IRP bank0
  2332     06CA  0800               	movf	0,w
  2333     06CB  0084               	movwf	4
  2334     06CC  120A  118A  230A  120A  118A  	fcall	stringdir
  2335     06D1  3A25               	xorlw	37
  2336     06D2  1D03               	skipz
  2337     06D3  2ED5               	goto	u2231
  2338     06D4  2ED6               	goto	u2230
  2339     06D5                     u2231:
  2340     06D5  2EF1               	goto	l1917
  2341     06D6                     u2230:
  2342     06D6                     l1907:
  2343                           
  2344                           ;C:\Program Files\Microchip\xc8\v2.45\pic\sources\c99\common\doprnt.c: 1202:         ++*
      +                          fmt;
  2345     06D6  3001               	movlw	1
  2346     06D7  00FF               	movwf	btemp+1
  2347     06D8  085F               	movf	vfpfcnvrt@fmt,w
  2348     06D9  0084               	movwf	4
  2349     06DA  087F               	movf	btemp+1,w
  2350     06DB  0780               	addwf	0,f
  2351     06DC                     l1909:
  2352                           
  2353                           ;C:\Program Files\Microchip\xc8\v2.45\pic\sources\c99\common\doprnt.c: 1204:         fla
      +                          gs = width = 0;
  2354     06DC  01A0               	clrf	_width
  2355     06DD  01A1               	clrf	_width+1
  2356     06DE  1003               	clrc
  2357     06DF  3000               	movlw	0
  2358     06E0  1803               	btfsc	3,0
  2359     06E1  3001               	movlw	1
  2360     06E2  00A6               	movwf	_flags
  2361     06E3                     l1911:
  2362                           
  2363                           ;C:\Program Files\Microchip\xc8\v2.45\pic\sources\c99\common\doprnt.c: 1205:         pre
      +                          c = -1;
  2364     06E3  30FF               	movlw	255
  2365     06E4  00A2               	movwf	_prec
  2366     06E5  30FF               	movlw	255
  2367     06E6  00A3               	movwf	_prec+1
  2368     06E7                     l1913:
  2369                           
  2370                           ;C:\Program Files\Microchip\xc8\v2.45\pic\sources\c99\common\doprnt.c: 1806:         ++*
      +                          fmt;
  2371     06E7  3001               	movlw	1
  2372     06E8  00FF               	movwf	btemp+1
  2373     06E9  1283               	bcf	3,5	;RP0=0, select bank0
  2374     06EA  1303               	bcf	3,6	;RP1=0, select bank0
  2375     06EB  085F               	movf	vfpfcnvrt@fmt,w
  2376     06EC  0084               	movwf	4
  2377     06ED  087F               	movf	btemp+1,w
  2378     06EE  1383               	bcf	3,7	;select IRP bank0
  2379     06EF  0780               	addwf	0,f
  2380     06F0  2F08               	goto	l823
  2381     06F1                     l1917:
  2382                           
  2383                           ;C:\Program Files\Microchip\xc8\v2.45\pic\sources\c99\common\doprnt.c: 1811:     fputc((
      +                          int)(*fmt)[0], fp);
  2384     06F1  085F               	movf	vfpfcnvrt@fmt,w
  2385     06F2  0084               	movwf	4
  2386     06F3  0800               	movf	0,w
  2387     06F4  0084               	movwf	4
  2388     06F5  120A  118A  230A  120A  118A  	fcall	stringdir
  2389     06FA  00E1               	movwf	??_vfpfcnvrt
  2390     06FB  01E2               	clrf	??_vfpfcnvrt+1
  2391     06FC  0861               	movf	??_vfpfcnvrt,w
  2392     06FD  00D7               	movwf	fputc@c
  2393     06FE  0862               	movf	??_vfpfcnvrt+1,w
  2394     06FF  00D8               	movwf	fputc@c+1
  2395     0700  0863               	movf	vfpfcnvrt@fp,w
  2396     0701  00D9               	movwf	fputc@fp
  2397     0702  120A  118A  2582  120A  118A  	fcall	_fputc
  2398     0707  2EE7               	goto	l1913
  2399     0708                     l823:
  2400     0708  0008               	return
  2401     0709                     __end_of_vfpfcnvrt:
  2402                           
  2403                           	psect	text8
  2404     0582                     __ptext8:	
  2405 ;; *************** function _fputc *****************
  2406 ;; Defined at:
  2407 ;;		line 8 in file "C:\Program Files\Microchip\xc8\v2.45\pic\sources\c99\common\nf_fputc.c"
  2408 ;; Parameters:    Size  Location     Type
  2409 ;;  c               2    4[BANK0 ] int 
  2410 ;;  fp              1    6[BANK0 ] PTR struct _IO_FILE
  2411 ;;		 -> NULL(0), 
  2412 ;; Auto vars:     Size  Location     Type
  2413 ;;		None
  2414 ;; Return value:  Size  Location     Type
  2415 ;;                  2    4[BANK0 ] int 
  2416 ;; Registers used:
  2417 ;;		wreg, fsr0l, fsr0h, status,2, status,0, pclath, cstack
  2418 ;; Tracked objects:
  2419 ;;		On entry : 0/0
  2420 ;;		On exit  : 0/0
  2421 ;;		Unchanged: 0/0
  2422 ;; Data sizes:     COMMON   BANK0   BANK1   BANK3   BANK2
  2423 ;;      Params:         0       3       0       0       0
  2424 ;;      Locals:         0       0       0       0       0
  2425 ;;      Temps:          0       5       0       0       0
  2426 ;;      Totals:         0       8       0       0       0
  2427 ;;Total ram usage:        8 bytes
  2428 ;; Hardware stack levels used: 1
  2429 ;; Hardware stack levels required when called: 4
  2430 ;; This function calls:
  2431 ;;		_putch
  2432 ;; This function is called by:
  2433 ;;		_vfpfcnvrt
  2434 ;; This function uses a non-reentrant model
  2435 ;;
  2436                           
  2437     0582                     _fputc:	
  2438                           ;psect for function _fputc
  2439                           
  2440     0582                     l1891:	
  2441                           ;incstack = 0
  2442 ;; hardware stack exceeded
  2443                           ; Regs used in _fputc: [wreg-fsr0h+status,2+status,0+pclath+cstack]
  2444                           
  2445     0582  1283               	bcf	3,5	;RP0=0, select bank0
  2446     0583  1303               	bcf	3,6	;RP1=0, select bank0
  2447     0584  0859               	movf	fputc@fp,w
  2448     0585  1903               	btfsc	3,2
  2449     0586  2D88               	goto	u2191
  2450     0587  2D89               	goto	u2190
  2451     0588                     u2191:
  2452     0588  2D8E               	goto	l1895
  2453     0589                     u2190:
  2454     0589                     l1893:
  2455     0589  0859               	movf	fputc@fp,w
  2456     058A  1D03               	btfss	3,2
  2457     058B  2D8D               	goto	u2201
  2458     058C  2D8E               	goto	u2200
  2459     058D                     u2201:
  2460     058D  2D95               	goto	l1897
  2461     058E                     u2200:
  2462     058E                     l1895:
  2463     058E  0857               	movf	fputc@c,w
  2464     058F  120A  118A  27FF  120A  118A  	fcall	_putch
  2465     0594  2DDB               	goto	l841
  2466     0595                     l1897:
  2467     0595  0859               	movf	fputc@fp,w
  2468     0596  3E09               	addlw	9
  2469     0597  0084               	movwf	4
  2470     0598  1383               	bcf	3,7	;select IRP bank0
  2471     0599  0800               	movf	0,w
  2472     059A  00DA               	movwf	??_fputc
  2473     059B  0A84               	incf	4,f
  2474     059C  0800               	movf	0,w
  2475     059D  00DB               	movwf	??_fputc+1
  2476     059E  085A               	movf	??_fputc,w
  2477     059F  045B               	iorwf	??_fputc+1,w
  2478     05A0  1903               	btfsc	3,2
  2479     05A1  2DA3               	goto	u2211
  2480     05A2  2DA4               	goto	u2210
  2481     05A3                     u2211:
  2482     05A3  2DC2               	goto	l1901
  2483     05A4                     u2210:
  2484     05A4                     l1899:
  2485     05A4  0859               	movf	fputc@fp,w
  2486     05A5  3E09               	addlw	9
  2487     05A6  0084               	movwf	4
  2488     05A7  0800               	movf	0,w
  2489     05A8  00DA               	movwf	??_fputc
  2490     05A9  0A84               	incf	4,f
  2491     05AA  0800               	movf	0,w
  2492     05AB  00DB               	movwf	??_fputc+1
  2493     05AC  0859               	movf	fputc@fp,w
  2494     05AD  3E02               	addlw	2
  2495     05AE  0084               	movwf	4
  2496     05AF  0800               	movf	0,w
  2497     05B0  00DC               	movwf	??_fputc+2
  2498     05B1  0A84               	incf	4,f
  2499     05B2  0800               	movf	0,w
  2500     05B3  00DD               	movwf	??_fputc+3
  2501     05B4  085D               	movf	??_fputc+3,w
  2502     05B5  3A80               	xorlw	128
  2503     05B6  00DE               	movwf	??_fputc+4
  2504     05B7  085B               	movf	??_fputc+1,w
  2505     05B8  3A80               	xorlw	128
  2506     05B9  025E               	subwf	??_fputc+4,w
  2507     05BA  1D03               	skipz
  2508     05BB  2DBE               	goto	u2225
  2509     05BC  085A               	movf	??_fputc,w
  2510     05BD  025C               	subwf	??_fputc+2,w
  2511     05BE                     u2225:
  2512     05BE  1803               	skipnc
  2513     05BF  2DC1               	goto	u2221
  2514     05C0  2DC2               	goto	u2220
  2515     05C1                     u2221:
  2516     05C1  2DDB               	goto	l841
  2517     05C2                     u2220:
  2518     05C2                     l1901:
  2519     05C2  1283               	bcf	3,5	;RP0=0, select bank0
  2520     05C3  1303               	bcf	3,6	;RP1=0, select bank0
  2521     05C4  0859               	movf	fputc@fp,w
  2522     05C5  3E02               	addlw	2
  2523     05C6  0084               	movwf	4
  2524     05C7  1383               	bcf	3,7	;select IRP bank0
  2525     05C8  0800               	movf	0,w
  2526     05C9  00DA               	movwf	??_fputc
  2527     05CA  0859               	movf	fputc@fp,w
  2528     05CB  0084               	movwf	4
  2529     05CC  0800               	movf	0,w
  2530     05CD  075A               	addwf	??_fputc,w
  2531     05CE  00DB               	movwf	??_fputc+1
  2532     05CF  085B               	movf	??_fputc+1,w
  2533     05D0  0084               	movwf	4
  2534     05D1  0857               	movf	fputc@c,w
  2535     05D2  0080               	movwf	0
  2536     05D3  0859               	movf	fputc@fp,w
  2537     05D4  3E02               	addlw	2
  2538     05D5  0084               	movwf	4
  2539     05D6  3001               	movlw	1
  2540     05D7  0780               	addwf	0,f
  2541     05D8  0A84               	incf	4,f
  2542     05D9  1803               	skipnc
  2543     05DA  0A80               	incf	0,f
  2544     05DB                     l841:
  2545     05DB  0008               	return
  2546     05DC                     __end_of_fputc:
  2547                           
  2548                           	psect	text9
  2549     07FF                     __ptext9:	
  2550 ;; *************** function _putch *****************
  2551 ;; Defined at:
  2552 ;;		line 7 in file "C:\Program Files\Microchip\xc8\v2.45\pic\sources\c99\common\putch.c"
  2553 ;; Parameters:    Size  Location     Type
  2554 ;;  c               1    wreg     unsigned char 
  2555 ;; Auto vars:     Size  Location     Type
  2556 ;;  c               1    0[COMMON] unsigned char 
  2557 ;; Return value:  Size  Location     Type
  2558 ;;                  1    wreg      void 
  2559 ;; Registers used:
  2560 ;;		wreg
  2561 ;; Tracked objects:
  2562 ;;		On entry : 0/0
  2563 ;;		On exit  : 0/0
  2564 ;;		Unchanged: 0/0
  2565 ;; Data sizes:     COMMON   BANK0   BANK1   BANK3   BANK2
  2566 ;;      Params:         0       0       0       0       0
  2567 ;;      Locals:         0       0       0       0       0
  2568 ;;      Temps:          0       0       0       0       0
  2569 ;;      Totals:         0       0       0       0       0
  2570 ;;Total ram usage:        0 bytes
  2571 ;; Hardware stack levels used: 1
  2572 ;; Hardware stack levels required when called: 3
  2573 ;; This function calls:
  2574 ;;		Nothing
  2575 ;; This function is called by:
  2576 ;;		_fputc
  2577 ;; This function uses a non-reentrant model
  2578 ;;
  2579                           
  2580     07FF                     _putch:	
  2581                           ;psect for function _putch
  2582                           
  2583     07FF                     l852:	
  2584                           ;incstack = 0
  2585 ;; hardware stack exceeded
  2586                           ; Regs used in _putch: [wreg]
  2587                           
  2588     07FF  0008               	return
  2589     0800                     __end_of_putch:
  2590                           
  2591                           	psect	text10
  2592     0513                     __ptext10:	
  2593 ;; *************** function _SendMessage *****************
  2594 ;; Defined at:
  2595 ;;		line 244 in file "GSM3.c"
  2596 ;; Parameters:    Size  Location     Type
  2597 ;;  phoneNumber     1    wreg     PTR const unsigned char 
  2598 ;;		 -> phonenumber(11), 
  2599 ;;  message         1    6[BANK0 ] PTR const unsigned char 
  2600 ;;		 -> STR_6(7), 
  2601 ;; Auto vars:     Size  Location     Type
  2602 ;;  phoneNumber     1   10[BANK0 ] PTR const unsigned char 
  2603 ;;		 -> phonenumber(11), 
  2604 ;; Return value:  Size  Location     Type
  2605 ;;                  1    wreg      void 
  2606 ;; Registers used:
  2607 ;;		wreg, fsr0l, fsr0h, status,2, status,0, btemp+1, pclath, cstack
  2608 ;; Tracked objects:
  2609 ;;		On entry : 0/0
  2610 ;;		On exit  : 0/0
  2611 ;;		Unchanged: 0/0
  2612 ;; Data sizes:     COMMON   BANK0   BANK1   BANK3   BANK2
  2613 ;;      Params:         0       1       0       0       0
  2614 ;;      Locals:         0       1       0       0       0
  2615 ;;      Temps:          0       3       0       0       0
  2616 ;;      Totals:         0       5       0       0       0
  2617 ;;Total ram usage:        5 bytes
  2618 ;; Hardware stack levels used: 1
  2619 ;; Hardware stack levels required when called: 4
  2620 ;; This function calls:
  2621 ;;		_SendCommand
  2622 ;; This function is called by:
  2623 ;;		_main
  2624 ;; This function uses a non-reentrant model
  2625 ;;
  2626                           
  2627     0513                     _SendMessage:	
  2628                           ;psect for function _SendMessage
  2629                           
  2630                           
  2631                           ;incstack = 0
  2632                           ; Regs used in _SendMessage: [wreg-fsr0h+status,2+status,0+btemp+1+pclath+cstack]
  2633                           ;SendMessage@phoneNumber stored from wreg
  2634     0513  1283               	bcf	3,5	;RP0=0, select bank0
  2635     0514  1303               	bcf	3,6	;RP1=0, select bank0
  2636     0515  00DD               	movwf	SendMessage@phoneNumber
  2637     0516                     l2149:
  2638                           
  2639                           ;GSM3.c: 246:     SendCommand("AT+CMGF=1\r");
  2640     0516  302F               	movlw	(low ((STR_16-__stringbase)| (0+32768)))& (0+255)
  2641     0517  00D7               	movwf	SendCommand@command
  2642     0518  3080               	movlw	128
  2643     0519  00D8               	movwf	SendCommand@command+1
  2644     051A  120A  118A  27CD  120A  118A  	fcall	_SendCommand
  2645     051F                     l2151:
  2646                           
  2647                           ;GSM3.c: 247:     _delay((unsigned long)((1000)*(20000000/4000.0)));
  2648     051F  301A               	movlw	26
  2649     0520  1283               	bcf	3,5	;RP0=0, select bank0
  2650     0521  1303               	bcf	3,6	;RP1=0, select bank0
  2651     0522  00DC               	movwf	??_SendMessage+2
  2652     0523  305E               	movlw	94
  2653     0524  00DB               	movwf	??_SendMessage+1
  2654     0525  306D               	movlw	109
  2655     0526  00DA               	movwf	??_SendMessage
  2656     0527                     u3117:
  2657     0527  0BDA               	decfsz	??_SendMessage,f
  2658     0528  2D27               	goto	u3117
  2659     0529  0BDB               	decfsz	??_SendMessage+1,f
  2660     052A  2D27               	goto	u3117
  2661     052B  0BDC               	decfsz	??_SendMessage+2,f
  2662     052C  2D27               	goto	u3117
  2663     052D  2D2E               	nop2
  2664     052E                     l2153:
  2665                           
  2666                           ;GSM3.c: 248:     SendCommand("AT+CMGS=\"");
  2667     052E  3045               	movlw	(low ((STR_17-__stringbase)| (0+32768)))& (0+255)
  2668     052F  1283               	bcf	3,5	;RP0=0, select bank0
  2669     0530  1303               	bcf	3,6	;RP1=0, select bank0
  2670     0531  00D7               	movwf	SendCommand@command
  2671     0532  3080               	movlw	128
  2672     0533  00D8               	movwf	SendCommand@command+1
  2673     0534  120A  118A  27CD  120A  118A  	fcall	_SendCommand
  2674     0539                     l2155:
  2675                           
  2676                           ;GSM3.c: 249:     SendCommand(phoneNumber);
  2677     0539  1283               	bcf	3,5	;RP0=0, select bank0
  2678     053A  1303               	bcf	3,6	;RP1=0, select bank0
  2679     053B  085D               	movf	SendMessage@phoneNumber,w
  2680     053C  00D7               	movwf	SendCommand@command
  2681     053D  3000               	movlw	0
  2682     053E  00D8               	movwf	SendCommand@command+1
  2683     053F  120A  118A  27CD  120A  118A  	fcall	_SendCommand
  2684     0544                     l2157:
  2685                           
  2686                           ;GSM3.c: 250:     SendCommand("\"\r");
  2687     0544  30A4               	movlw	(low ((STR_18-__stringbase)| (0+32768)))& (0+255)
  2688     0545  1283               	bcf	3,5	;RP0=0, select bank0
  2689     0546  1303               	bcf	3,6	;RP1=0, select bank0
  2690     0547  00D7               	movwf	SendCommand@command
  2691     0548  3080               	movlw	128
  2692     0549  00D8               	movwf	SendCommand@command+1
  2693     054A  120A  118A  27CD  120A  118A  	fcall	_SendCommand
  2694                           
  2695                           ;GSM3.c: 251:     _delay((unsigned long)((1000)*(20000000/4000.0)));
  2696     054F  301A               	movlw	26
  2697     0550  1283               	bcf	3,5	;RP0=0, select bank0
  2698     0551  1303               	bcf	3,6	;RP1=0, select bank0
  2699     0552  00DC               	movwf	??_SendMessage+2
  2700     0553  305E               	movlw	94
  2701     0554  00DB               	movwf	??_SendMessage+1
  2702     0555  306D               	movlw	109
  2703     0556  00DA               	movwf	??_SendMessage
  2704     0557                     u3127:
  2705     0557  0BDA               	decfsz	??_SendMessage,f
  2706     0558  2D57               	goto	u3127
  2707     0559  0BDB               	decfsz	??_SendMessage+1,f
  2708     055A  2D57               	goto	u3127
  2709     055B  0BDC               	decfsz	??_SendMessage+2,f
  2710     055C  2D57               	goto	u3127
  2711     055D  2D5E               	nop2
  2712     055E                     l2159:
  2713                           
  2714                           ;GSM3.c: 252:     SendCommand(message);
  2715     055E  1283               	bcf	3,5	;RP0=0, select bank0
  2716     055F  1303               	bcf	3,6	;RP1=0, select bank0
  2717     0560  0859               	movf	SendMessage@message,w
  2718     0561  00D7               	movwf	SendCommand@command
  2719     0562  3000               	movlw	0
  2720     0563  1D03               	btfss	3,2
  2721     0564  3080               	movlw	128
  2722     0565  00D8               	movwf	SendCommand@command+1
  2723     0566  120A  118A  27CD  120A  118A  	fcall	_SendCommand
  2724     056B                     l2161:
  2725                           
  2726                           ;GSM3.c: 253:     SendCommand("\x1A");
  2727     056B  30AC               	movlw	(low ((STR_19-__stringbase)| (0+32768)))& (0+255)
  2728     056C  1283               	bcf	3,5	;RP0=0, select bank0
  2729     056D  1303               	bcf	3,6	;RP1=0, select bank0
  2730     056E  00D7               	movwf	SendCommand@command
  2731     056F  3080               	movlw	128
  2732     0570  00D8               	movwf	SendCommand@command+1
  2733     0571  120A  118A  27CD  120A  118A  	fcall	_SendCommand
  2734     0576                     l2163:
  2735                           
  2736                           ;GSM3.c: 254:     SendCommand("\r\n");
  2737     0576  3099               	movlw	(low (((STR_13+1)-__stringbase)| (0+32768)))& (0+255)
  2738     0577  1283               	bcf	3,5	;RP0=0, select bank0
  2739     0578  1303               	bcf	3,6	;RP1=0, select bank0
  2740     0579  00D7               	movwf	SendCommand@command
  2741     057A  3080               	movlw	128
  2742     057B  00D8               	movwf	SendCommand@command+1
  2743     057C  120A  118A  27CD  120A  118A  	fcall	_SendCommand
  2744     0581                     l181:
  2745     0581  0008               	return
  2746     0582                     __end_of_SendMessage:
  2747                           
  2748                           	psect	text11
  2749     02E9                     __ptext11:	
  2750 ;; *************** function _LCD_Clear *****************
  2751 ;; Defined at:
  2752 ;;		line 283 in file "GSM3.c"
  2753 ;; Parameters:    Size  Location     Type
  2754 ;;		None
  2755 ;; Auto vars:     Size  Location     Type
  2756 ;;		None
  2757 ;; Return value:  Size  Location     Type
  2758 ;;                  1    wreg      void 
  2759 ;; Registers used:
  2760 ;;		wreg, status,2, status,0, pclath, cstack
  2761 ;; Tracked objects:
  2762 ;;		On entry : 0/0
  2763 ;;		On exit  : 0/0
  2764 ;;		Unchanged: 0/0
  2765 ;; Data sizes:     COMMON   BANK0   BANK1   BANK3   BANK2
  2766 ;;      Params:         0       0       0       0       0
  2767 ;;      Locals:         0       0       0       0       0
  2768 ;;      Temps:          0       0       0       0       0
  2769 ;;      Totals:         0       0       0       0       0
  2770 ;;Total ram usage:        0 bytes
  2771 ;; Hardware stack levels used: 1
  2772 ;; Hardware stack levels required when called: 4
  2773 ;; This function calls:
  2774 ;;		_cmd
  2775 ;; This function is called by:
  2776 ;;		_main
  2777 ;; This function uses a non-reentrant model
  2778 ;;
  2779                           
  2780     02E9                     _LCD_Clear:	
  2781                           ;psect for function _LCD_Clear
  2782                           
  2783     02E9                     l2165:	
  2784                           ;incstack = 0
  2785                           ; Regs used in _LCD_Clear: [wreg+status,2+status,0+pclath+cstack]
  2786                           
  2787                           
  2788                           ;GSM3.c: 285:     cmd(0x01);
  2789     02E9  3001               	movlw	1
  2790     02EA  120A  118A  2468  120A  118A  	fcall	_cmd
  2791     02EF                     l197:
  2792     02EF  0008               	return
  2793     02F0                     __end_of_LCD_Clear:
  2794                           
  2795                           	psect	text12
  2796     0468                     __ptext12:	
  2797 ;; *************** function _cmd *****************
  2798 ;; Defined at:
  2799 ;;		line 185 in file "GSM3.c"
  2800 ;; Parameters:    Size  Location     Type
  2801 ;;  a               1    wreg     unsigned char 
  2802 ;; Auto vars:     Size  Location     Type
  2803 ;;  a               1    6[BANK0 ] unsigned char 
  2804 ;; Return value:  Size  Location     Type
  2805 ;;                  1    wreg      void 
  2806 ;; Registers used:
  2807 ;;		wreg, status,2, status,0
  2808 ;; Tracked objects:
  2809 ;;		On entry : 0/0
  2810 ;;		On exit  : 0/0
  2811 ;;		Unchanged: 0/0
  2812 ;; Data sizes:     COMMON   BANK0   BANK1   BANK3   BANK2
  2813 ;;      Params:         0       0       0       0       0
  2814 ;;      Locals:         0       1       0       0       0
  2815 ;;      Temps:          0       2       0       0       0
  2816 ;;      Totals:         0       3       0       0       0
  2817 ;;Total ram usage:        3 bytes
  2818 ;; Hardware stack levels used: 1
  2819 ;; Hardware stack levels required when called: 3
  2820 ;; This function calls:
  2821 ;;		Nothing
  2822 ;; This function is called by:
  2823 ;;		_main
  2824 ;;		_lcd_init
  2825 ;;		_LCD_Clear
  2826 ;;		_receiveSMS
  2827 ;; This function uses a non-reentrant model
  2828 ;;
  2829                           
  2830     0468                     _cmd:	
  2831                           ;psect for function _cmd
  2832                           
  2833                           
  2834                           ;incstack = 0
  2835                           ; Regs used in _cmd: [wreg+status,2+status,0]
  2836                           ;cmd@a stored from wreg
  2837     0468  1283               	bcf	3,5	;RP0=0, select bank0
  2838     0469  1303               	bcf	3,6	;RP1=0, select bank0
  2839     046A  00D9               	movwf	cmd@a
  2840     046B                     l1933:
  2841                           
  2842                           ;GSM3.c: 185: void cmd(unsigned char a);GSM3.c: 186: {;GSM3.c: 187:     RB0=0;
  2843     046B  1006               	bcf	6,0	;volatile
  2844     046C                     l1935:
  2845                           
  2846                           ;GSM3.c: 188:     RB2=(a>>4)&1;
  2847     046C  0859               	movf	cmd@a,w
  2848     046D  00D7               	movwf	??_cmd
  2849     046E  3004               	movlw	4
  2850     046F                     u2255:
  2851     046F  1003               	clrc
  2852     0470  0CD7               	rrf	??_cmd,f
  2853     0471  3EFF               	addlw	-1
  2854     0472  1D03               	skipz
  2855     0473  2C6F               	goto	u2255
  2856     0474  1857               	btfsc	??_cmd,0
  2857     0475  2C77               	goto	u2261
  2858     0476  2C7B               	goto	u2260
  2859     0477                     u2261:
  2860     0477  1283               	bcf	3,5	;RP0=0, select bank0
  2861     0478  1303               	bcf	3,6	;RP1=0, select bank0
  2862     0479  1506               	bsf	6,2	;volatile
  2863     047A  2C7E               	goto	u2274
  2864     047B                     u2260:
  2865     047B  1283               	bcf	3,5	;RP0=0, select bank0
  2866     047C  1303               	bcf	3,6	;RP1=0, select bank0
  2867     047D  1106               	bcf	6,2	;volatile
  2868     047E                     u2274:
  2869                           
  2870                           ;GSM3.c: 189:     RB3=(a>>5)&1;
  2871     047E  0859               	movf	cmd@a,w
  2872     047F  00D7               	movwf	??_cmd
  2873     0480  3005               	movlw	5
  2874     0481                     u2285:
  2875     0481  1003               	clrc
  2876     0482  0CD7               	rrf	??_cmd,f
  2877     0483  3EFF               	addlw	-1
  2878     0484  1D03               	skipz
  2879     0485  2C81               	goto	u2285
  2880     0486  1857               	btfsc	??_cmd,0
  2881     0487  2C89               	goto	u2291
  2882     0488  2C8D               	goto	u2290
  2883     0489                     u2291:
  2884     0489  1283               	bcf	3,5	;RP0=0, select bank0
  2885     048A  1303               	bcf	3,6	;RP1=0, select bank0
  2886     048B  1586               	bsf	6,3	;volatile
  2887     048C  2C90               	goto	u2304
  2888     048D                     u2290:
  2889     048D  1283               	bcf	3,5	;RP0=0, select bank0
  2890     048E  1303               	bcf	3,6	;RP1=0, select bank0
  2891     048F  1186               	bcf	6,3	;volatile
  2892     0490                     u2304:
  2893                           
  2894                           ;GSM3.c: 190:     RB4=(a>>6)&1;
  2895     0490  0859               	movf	cmd@a,w
  2896     0491  00D7               	movwf	??_cmd
  2897     0492  3006               	movlw	6
  2898     0493                     u2315:
  2899     0493  1003               	clrc
  2900     0494  0CD7               	rrf	??_cmd,f
  2901     0495  3EFF               	addlw	-1
  2902     0496  1D03               	skipz
  2903     0497  2C93               	goto	u2315
  2904     0498  1857               	btfsc	??_cmd,0
  2905     0499  2C9B               	goto	u2321
  2906     049A  2C9F               	goto	u2320
  2907     049B                     u2321:
  2908     049B  1283               	bcf	3,5	;RP0=0, select bank0
  2909     049C  1303               	bcf	3,6	;RP1=0, select bank0
  2910     049D  1606               	bsf	6,4	;volatile
  2911     049E  2CA2               	goto	u2334
  2912     049F                     u2320:
  2913     049F  1283               	bcf	3,5	;RP0=0, select bank0
  2914     04A0  1303               	bcf	3,6	;RP1=0, select bank0
  2915     04A1  1206               	bcf	6,4	;volatile
  2916     04A2                     u2334:
  2917                           
  2918                           ;GSM3.c: 191:     RB5=(a>>7)&1;
  2919     04A2  0859               	movf	cmd@a,w
  2920     04A3  00D7               	movwf	??_cmd
  2921     04A4  3007               	movlw	7
  2922     04A5                     u2345:
  2923     04A5  1003               	clrc
  2924     04A6  0CD7               	rrf	??_cmd,f
  2925     04A7  3EFF               	addlw	-1
  2926     04A8  1D03               	skipz
  2927     04A9  2CA5               	goto	u2345
  2928     04AA  1857               	btfsc	??_cmd,0
  2929     04AB  2CAD               	goto	u2351
  2930     04AC  2CB1               	goto	u2350
  2931     04AD                     u2351:
  2932     04AD  1283               	bcf	3,5	;RP0=0, select bank0
  2933     04AE  1303               	bcf	3,6	;RP1=0, select bank0
  2934     04AF  1686               	bsf	6,5	;volatile
  2935     04B0  2CB4               	goto	u2364
  2936     04B1                     u2350:
  2937     04B1  1283               	bcf	3,5	;RP0=0, select bank0
  2938     04B2  1303               	bcf	3,6	;RP1=0, select bank0
  2939     04B3  1286               	bcf	6,5	;volatile
  2940     04B4                     u2364:
  2941     04B4                     l1937:
  2942                           
  2943                           ;GSM3.c: 192:     RB1=1;
  2944     04B4  1486               	bsf	6,1	;volatile
  2945     04B5                     l1939:
  2946                           
  2947                           ;GSM3.c: 193:     _delay((unsigned long)((1)*(20000000/4000.0)));
  2948     04B5  3007               	movlw	7
  2949     04B6  1283               	bcf	3,5	;RP0=0, select bank0
  2950     04B7  1303               	bcf	3,6	;RP1=0, select bank0
  2951     04B8  00D8               	movwf	??_cmd+1
  2952     04B9  307C               	movlw	124
  2953     04BA  00D7               	movwf	??_cmd
  2954     04BB                     u3137:
  2955     04BB  0BD7               	decfsz	??_cmd,f
  2956     04BC  2CBB               	goto	u3137
  2957     04BD  0BD8               	decfsz	??_cmd+1,f
  2958     04BE  2CBB               	goto	u3137
  2959     04BF  0000               	nop
  2960     04C0                     l1941:
  2961                           
  2962                           ;GSM3.c: 194:     RB1=0;
  2963     04C0  1283               	bcf	3,5	;RP0=0, select bank0
  2964     04C1  1303               	bcf	3,6	;RP1=0, select bank0
  2965     04C2  1086               	bcf	6,1	;volatile
  2966     04C3                     l1943:
  2967                           
  2968                           ;GSM3.c: 195:     RB2=a&1;
  2969     04C3  1859               	btfsc	cmd@a,0
  2970     04C4  2CC6               	goto	u2371
  2971     04C5  2CCA               	goto	u2370
  2972     04C6                     u2371:
  2973     04C6  1283               	bcf	3,5	;RP0=0, select bank0
  2974     04C7  1303               	bcf	3,6	;RP1=0, select bank0
  2975     04C8  1506               	bsf	6,2	;volatile
  2976     04C9  2CCD               	goto	u2384
  2977     04CA                     u2370:
  2978     04CA  1283               	bcf	3,5	;RP0=0, select bank0
  2979     04CB  1303               	bcf	3,6	;RP1=0, select bank0
  2980     04CC  1106               	bcf	6,2	;volatile
  2981     04CD                     u2384:
  2982     04CD                     l1945:
  2983                           
  2984                           ;GSM3.c: 196:     RB3=(a>>1)&1;
  2985     04CD  0859               	movf	cmd@a,w
  2986     04CE  00D7               	movwf	??_cmd
  2987     04CF  3001               	movlw	1
  2988     04D0                     u2395:
  2989     04D0  1003               	clrc
  2990     04D1  0CD7               	rrf	??_cmd,f
  2991     04D2  3EFF               	addlw	-1
  2992     04D3  1D03               	skipz
  2993     04D4  2CD0               	goto	u2395
  2994     04D5  1857               	btfsc	??_cmd,0
  2995     04D6  2CD8               	goto	u2401
  2996     04D7  2CDC               	goto	u2400
  2997     04D8                     u2401:
  2998     04D8  1283               	bcf	3,5	;RP0=0, select bank0
  2999     04D9  1303               	bcf	3,6	;RP1=0, select bank0
  3000     04DA  1586               	bsf	6,3	;volatile
  3001     04DB  2CDF               	goto	u2414
  3002     04DC                     u2400:
  3003     04DC  1283               	bcf	3,5	;RP0=0, select bank0
  3004     04DD  1303               	bcf	3,6	;RP1=0, select bank0
  3005     04DE  1186               	bcf	6,3	;volatile
  3006     04DF                     u2414:
  3007     04DF                     l1947:
  3008                           
  3009                           ;GSM3.c: 197:     RB4=(a>>2)&1;
  3010     04DF  0859               	movf	cmd@a,w
  3011     04E0  00D7               	movwf	??_cmd
  3012     04E1  3002               	movlw	2
  3013     04E2                     u2425:
  3014     04E2  1003               	clrc
  3015     04E3  0CD7               	rrf	??_cmd,f
  3016     04E4  3EFF               	addlw	-1
  3017     04E5  1D03               	skipz
  3018     04E6  2CE2               	goto	u2425
  3019     04E7  1857               	btfsc	??_cmd,0
  3020     04E8  2CEA               	goto	u2431
  3021     04E9  2CEE               	goto	u2430
  3022     04EA                     u2431:
  3023     04EA  1283               	bcf	3,5	;RP0=0, select bank0
  3024     04EB  1303               	bcf	3,6	;RP1=0, select bank0
  3025     04EC  1606               	bsf	6,4	;volatile
  3026     04ED  2CF1               	goto	u2444
  3027     04EE                     u2430:
  3028     04EE  1283               	bcf	3,5	;RP0=0, select bank0
  3029     04EF  1303               	bcf	3,6	;RP1=0, select bank0
  3030     04F0  1206               	bcf	6,4	;volatile
  3031     04F1                     u2444:
  3032     04F1                     l1949:
  3033                           
  3034                           ;GSM3.c: 198:     RB5=(a>>3)&1;
  3035     04F1  0859               	movf	cmd@a,w
  3036     04F2  00D7               	movwf	??_cmd
  3037     04F3  3003               	movlw	3
  3038     04F4                     u2455:
  3039     04F4  1003               	clrc
  3040     04F5  0CD7               	rrf	??_cmd,f
  3041     04F6  3EFF               	addlw	-1
  3042     04F7  1D03               	skipz
  3043     04F8  2CF4               	goto	u2455
  3044     04F9  1857               	btfsc	??_cmd,0
  3045     04FA  2CFC               	goto	u2461
  3046     04FB  2D00               	goto	u2460
  3047     04FC                     u2461:
  3048     04FC  1283               	bcf	3,5	;RP0=0, select bank0
  3049     04FD  1303               	bcf	3,6	;RP1=0, select bank0
  3050     04FE  1686               	bsf	6,5	;volatile
  3051     04FF  2D03               	goto	u2474
  3052     0500                     u2460:
  3053     0500  1283               	bcf	3,5	;RP0=0, select bank0
  3054     0501  1303               	bcf	3,6	;RP1=0, select bank0
  3055     0502  1286               	bcf	6,5	;volatile
  3056     0503                     u2474:
  3057     0503                     l1951:
  3058                           
  3059                           ;GSM3.c: 199:     RB1=1;
  3060     0503  1486               	bsf	6,1	;volatile
  3061                           
  3062                           ;GSM3.c: 200:     _delay((unsigned long)((1)*(20000000/4000.0)));
  3063     0504  3007               	movlw	7
  3064     0505  1283               	bcf	3,5	;RP0=0, select bank0
  3065     0506  1303               	bcf	3,6	;RP1=0, select bank0
  3066     0507  00D8               	movwf	??_cmd+1
  3067     0508  307C               	movlw	124
  3068     0509  00D7               	movwf	??_cmd
  3069     050A                     u3147:
  3070     050A  0BD7               	decfsz	??_cmd,f
  3071     050B  2D0A               	goto	u3147
  3072     050C  0BD8               	decfsz	??_cmd+1,f
  3073     050D  2D0A               	goto	u3147
  3074     050E  0000               	nop
  3075     050F                     l1953:
  3076                           
  3077                           ;GSM3.c: 201:     RB1=0;
  3078     050F  1283               	bcf	3,5	;RP0=0, select bank0
  3079     0510  1303               	bcf	3,6	;RP1=0, select bank0
  3080     0511  1086               	bcf	6,1	;volatile
  3081     0512                     l160:
  3082     0512  0008               	return
  3083     0513                     __end_of_cmd:
  3084                           
  3085                           	psect	text13
  3086     0709                     __ptext13:	
  3087 ;; *************** function _Init *****************
  3088 ;; Defined at:
  3089 ;;		line 145 in file "GSM3.c"
  3090 ;; Parameters:    Size  Location     Type
  3091 ;;		None
  3092 ;; Auto vars:     Size  Location     Type
  3093 ;;		None
  3094 ;; Return value:  Size  Location     Type
  3095 ;;                  1    wreg      void 
  3096 ;; Registers used:
  3097 ;;		wreg, fsr0l, fsr0h, status,2, status,0, btemp+1, pclath, cstack
  3098 ;; Tracked objects:
  3099 ;;		On entry : 0/0
  3100 ;;		On exit  : 0/0
  3101 ;;		Unchanged: 0/0
  3102 ;; Data sizes:     COMMON   BANK0   BANK1   BANK3   BANK2
  3103 ;;      Params:         0       0       0       0       0
  3104 ;;      Locals:         0       0       0       0       0
  3105 ;;      Temps:          0       3       0       0       0
  3106 ;;      Totals:         0       3       0       0       0
  3107 ;;Total ram usage:        3 bytes
  3108 ;; Hardware stack levels used: 1
  3109 ;; Hardware stack levels required when called: 4
  3110 ;; This function calls:
  3111 ;;		_SendCommand
  3112 ;; This function is called by:
  3113 ;;		_main
  3114 ;; This function uses a non-reentrant model
  3115 ;;
  3116                           
  3117     0709                     _Init:	
  3118                           ;psect for function _Init
  3119                           
  3120     0709                     l1991:	
  3121                           ;incstack = 0
  3122                           ; Regs used in _Init: [wreg-fsr0h+status,2+status,0+btemp+1+pclath+cstack]
  3123                           
  3124                           
  3125                           ;GSM3.c: 147:     SPEN=1;
  3126     0709  1283               	bcf	3,5	;RP0=0, select bank0
  3127     070A  1303               	bcf	3,6	;RP1=0, select bank0
  3128     070B  1798               	bsf	24,7	;volatile
  3129                           
  3130                           ;GSM3.c: 148:     TXEN= 1;
  3131     070C  1683               	bsf	3,5	;RP0=1, select bank1
  3132     070D  1303               	bcf	3,6	;RP1=0, select bank1
  3133     070E  1698               	bsf	24,5	;volatile
  3134                           
  3135                           ;GSM3.c: 149:     BRGH=1;
  3136     070F  1518               	bsf	24,2	;volatile
  3137     0710                     l1993:
  3138                           
  3139                           ;GSM3.c: 150:     SPBRG=129;
  3140     0710  3081               	movlw	129
  3141     0711  0099               	movwf	25	;volatile
  3142     0712                     l1995:
  3143                           
  3144                           ;GSM3.c: 151:     SYNC=0;
  3145     0712  1218               	bcf	24,4	;volatile
  3146     0713                     l1997:
  3147                           
  3148                           ;GSM3.c: 152:     CREN=1;
  3149     0713  1283               	bcf	3,5	;RP0=0, select bank0
  3150     0714  1303               	bcf	3,6	;RP1=0, select bank0
  3151     0715  1618               	bsf	24,4	;volatile
  3152     0716                     l1999:
  3153                           
  3154                           ;GSM3.c: 153:     RCIE=1;
  3155     0716  1683               	bsf	3,5	;RP0=1, select bank1
  3156     0717  1303               	bcf	3,6	;RP1=0, select bank1
  3157     0718  168C               	bsf	12,5	;volatile
  3158     0719                     l2001:
  3159                           
  3160                           ;GSM3.c: 154:     PEIE=1;
  3161     0719  170B               	bsf	11,6	;volatile
  3162     071A                     l2003:
  3163                           
  3164                           ;GSM3.c: 155:     GIE=1;
  3165     071A  178B               	bsf	11,7	;volatile
  3166                           
  3167                           ;GSM3.c: 156:     _delay((unsigned long)((100)*(20000000/4000.0)));
  3168     071B  3003               	movlw	3
  3169     071C  1283               	bcf	3,5	;RP0=0, select bank0
  3170     071D  1303               	bcf	3,6	;RP1=0, select bank0
  3171     071E  00DB               	movwf	??_Init+2
  3172     071F  308A               	movlw	138
  3173     0720  00DA               	movwf	??_Init+1
  3174     0721  3055               	movlw	85
  3175     0722  00D9               	movwf	??_Init
  3176     0723                     u3157:
  3177     0723  0BD9               	decfsz	??_Init,f
  3178     0724  2F23               	goto	u3157
  3179     0725  0BDA               	decfsz	??_Init+1,f
  3180     0726  2F23               	goto	u3157
  3181     0727  0BDB               	decfsz	??_Init+2,f
  3182     0728  2F23               	goto	u3157
  3183     0729                     l2005:
  3184                           
  3185                           ;GSM3.c: 157:     SendCommand("AT");
  3186     0729  30A7               	movlw	(low ((STR_11-__stringbase)| (0+32768)))& (0+255)
  3187     072A  1283               	bcf	3,5	;RP0=0, select bank0
  3188     072B  1303               	bcf	3,6	;RP1=0, select bank0
  3189     072C  00D7               	movwf	SendCommand@command
  3190     072D  3080               	movlw	128
  3191     072E  00D8               	movwf	SendCommand@command+1
  3192     072F  120A  118A  27CD  120A  118A  	fcall	_SendCommand
  3193     0734                     l2007:
  3194                           
  3195                           ;GSM3.c: 158:     TXREG='\r';
  3196     0734  300D               	movlw	13
  3197     0735  1283               	bcf	3,5	;RP0=0, select bank0
  3198     0736  1303               	bcf	3,6	;RP1=0, select bank0
  3199     0737  0099               	movwf	25	;volatile
  3200     0738                     l2009:
  3201                           
  3202                           ;GSM3.c: 159:     _delay((unsigned long)((100)*(20000000/4000.0)));
  3203     0738  3003               	movlw	3
  3204     0739  1283               	bcf	3,5	;RP0=0, select bank0
  3205     073A  1303               	bcf	3,6	;RP1=0, select bank0
  3206     073B  00DB               	movwf	??_Init+2
  3207     073C  308A               	movlw	138
  3208     073D  00DA               	movwf	??_Init+1
  3209     073E  3055               	movlw	85
  3210     073F  00D9               	movwf	??_Init
  3211     0740                     u3167:
  3212     0740  0BD9               	decfsz	??_Init,f
  3213     0741  2F40               	goto	u3167
  3214     0742  0BDA               	decfsz	??_Init+1,f
  3215     0743  2F40               	goto	u3167
  3216     0744  0BDB               	decfsz	??_Init+2,f
  3217     0745  2F40               	goto	u3167
  3218     0746                     l139:
  3219     0746  0008               	return
  3220     0747                     __end_of_Init:
  3221                           
  3222                           	psect	text14
  3223     07F3                     __ptext14:	
  3224 ;; *************** function _End *****************
  3225 ;; Defined at:
  3226 ;;		line 240 in file "GSM3.c"
  3227 ;; Parameters:    Size  Location     Type
  3228 ;;		None
  3229 ;; Auto vars:     Size  Location     Type
  3230 ;;		None
  3231 ;; Return value:  Size  Location     Type
  3232 ;;                  1    wreg      void 
  3233 ;; Registers used:
  3234 ;;		wreg, fsr0l, fsr0h, status,2, status,0, btemp+1, pclath, cstack
  3235 ;; Tracked objects:
  3236 ;;		On entry : 0/0
  3237 ;;		On exit  : 0/0
  3238 ;;		Unchanged: 0/0
  3239 ;; Data sizes:     COMMON   BANK0   BANK1   BANK3   BANK2
  3240 ;;      Params:         0       0       0       0       0
  3241 ;;      Locals:         0       0       0       0       0
  3242 ;;      Temps:          0       0       0       0       0
  3243 ;;      Totals:         0       0       0       0       0
  3244 ;;Total ram usage:        0 bytes
  3245 ;; Hardware stack levels used: 1
  3246 ;; Hardware stack levels required when called: 4
  3247 ;; This function calls:
  3248 ;;		_SendCommand
  3249 ;; This function is called by:
  3250 ;;		_main
  3251 ;; This function uses a non-reentrant model
  3252 ;;
  3253                           
  3254     07F3                     _End:	
  3255                           ;psect for function _End
  3256                           
  3257     07F3                     l2145:	
  3258                           ;incstack = 0
  3259                           ; Regs used in _End: [wreg-fsr0h+status,2+status,0+btemp+1+pclath+cstack]
  3260                           
  3261                           
  3262                           ;GSM3.c: 241:     SendCommand("ATH\r\n");
  3263     07F3  308D               	movlw	(low ((STR_15-__stringbase)| (0+32768)))& (0+255)
  3264     07F4  1283               	bcf	3,5	;RP0=0, select bank0
  3265     07F5  1303               	bcf	3,6	;RP1=0, select bank0
  3266     07F6  00D7               	movwf	SendCommand@command
  3267     07F7  3080               	movlw	128
  3268     07F8  00D8               	movwf	SendCommand@command+1
  3269     07F9  120A  118A  27CD  120A  118A  	fcall	_SendCommand
  3270     07FE                     l178:
  3271     07FE  0008               	return
  3272     07FF                     __end_of_End:
  3273                           
  3274                           	psect	text15
  3275     0253                     __ptext15:	
  3276 ;; *************** function _Call *****************
  3277 ;; Defined at:
  3278 ;;		line 231 in file "GSM3.c"
  3279 ;; Parameters:    Size  Location     Type
  3280 ;;  phoneNumber     1    wreg     PTR const unsigned char 
  3281 ;;		 -> phonenumber(11), 
  3282 ;; Auto vars:     Size  Location     Type
  3283 ;;  phoneNumber     1    6[BANK0 ] PTR const unsigned char 
  3284 ;;		 -> phonenumber(11), 
  3285 ;; Return value:  Size  Location     Type
  3286 ;;                  1    wreg      void 
  3287 ;; Registers used:
  3288 ;;		wreg, fsr0l, fsr0h, status,2, status,0, btemp+1, pclath, cstack
  3289 ;; Tracked objects:
  3290 ;;		On entry : 0/0
  3291 ;;		On exit  : 0/0
  3292 ;;		Unchanged: 0/0
  3293 ;; Data sizes:     COMMON   BANK0   BANK1   BANK3   BANK2
  3294 ;;      Params:         0       0       0       0       0
  3295 ;;      Locals:         0       1       0       0       0
  3296 ;;      Temps:          0       0       0       0       0
  3297 ;;      Totals:         0       1       0       0       0
  3298 ;;Total ram usage:        1 bytes
  3299 ;; Hardware stack levels used: 1
  3300 ;; Hardware stack levels required when called: 4
  3301 ;; This function calls:
  3302 ;;		_SendCommand
  3303 ;; This function is called by:
  3304 ;;		_main
  3305 ;; This function uses a non-reentrant model
  3306 ;;
  3307                           
  3308     0253                     _Call:	
  3309                           ;psect for function _Call
  3310                           
  3311                           
  3312                           ;incstack = 0
  3313                           ; Regs used in _Call: [wreg-fsr0h+status,2+status,0+btemp+1+pclath+cstack]
  3314                           ;Call@phoneNumber stored from wreg
  3315     0253  1283               	bcf	3,5	;RP0=0, select bank0
  3316     0254  1303               	bcf	3,6	;RP1=0, select bank0
  3317     0255  00D9               	movwf	Call@phoneNumber
  3318     0256                     l2143:
  3319                           
  3320                           ;GSM3.c: 232:     SendCommand("ATD");
  3321     0256  30A0               	movlw	(low ((STR_12-__stringbase)| (0+32768)))& (0+255)
  3322     0257  00D7               	movwf	SendCommand@command
  3323     0258  3080               	movlw	128
  3324     0259  00D8               	movwf	SendCommand@command+1
  3325     025A  120A  118A  27CD  120A  118A  	fcall	_SendCommand
  3326                           
  3327                           ;GSM3.c: 233:     SendCommand(phoneNumber);
  3328     025F  1283               	bcf	3,5	;RP0=0, select bank0
  3329     0260  1303               	bcf	3,6	;RP1=0, select bank0
  3330     0261  0859               	movf	Call@phoneNumber,w
  3331     0262  00D7               	movwf	SendCommand@command
  3332     0263  3000               	movlw	0
  3333     0264  00D8               	movwf	SendCommand@command+1
  3334     0265  120A  118A  27CD  120A  118A  	fcall	_SendCommand
  3335                           
  3336                           ;GSM3.c: 234:     SendCommand(";\r\n");
  3337     026A  3098               	movlw	(low ((STR_13-__stringbase)| (0+32768)))& (0+255)
  3338     026B  1283               	bcf	3,5	;RP0=0, select bank0
  3339     026C  1303               	bcf	3,6	;RP1=0, select bank0
  3340     026D  00D7               	movwf	SendCommand@command
  3341     026E  3080               	movlw	128
  3342     026F  00D8               	movwf	SendCommand@command+1
  3343     0270  120A  118A  27CD  120A  118A  	fcall	_SendCommand
  3344     0275                     l172:
  3345     0275  0008               	return
  3346     0276                     __end_of_Call:
  3347                           
  3348                           	psect	text16
  3349     02D5                     __ptext16:	
  3350 ;; *************** function _Answer *****************
  3351 ;; Defined at:
  3352 ;;		line 237 in file "GSM3.c"
  3353 ;; Parameters:    Size  Location     Type
  3354 ;;		None
  3355 ;; Auto vars:     Size  Location     Type
  3356 ;;		None
  3357 ;; Return value:  Size  Location     Type
  3358 ;;                  1    wreg      void 
  3359 ;; Registers used:
  3360 ;;		wreg, fsr0l, fsr0h, status,2, status,0, btemp+1, pclath, cstack
  3361 ;; Tracked objects:
  3362 ;;		On entry : 0/0
  3363 ;;		On exit  : 0/0
  3364 ;;		Unchanged: 0/0
  3365 ;; Data sizes:     COMMON   BANK0   BANK1   BANK3   BANK2
  3366 ;;      Params:         0       0       0       0       0
  3367 ;;      Locals:         0       0       0       0       0
  3368 ;;      Temps:          0       0       0       0       0
  3369 ;;      Totals:         0       0       0       0       0
  3370 ;;Total ram usage:        0 bytes
  3371 ;; Hardware stack levels used: 1
  3372 ;; Hardware stack levels required when called: 4
  3373 ;; This function calls:
  3374 ;;		_SendCommand
  3375 ;; This function is called by:
  3376 ;;		_main
  3377 ;; This function uses a non-reentrant model
  3378 ;;
  3379                           
  3380     02D5                     _Answer:	
  3381                           ;psect for function _Answer
  3382                           
  3383     02D5                     l2147:	
  3384                           ;incstack = 0
  3385                           ; Regs used in _Answer: [wreg-fsr0h+status,2+status,0+btemp+1+pclath+cstack]
  3386                           
  3387                           
  3388                           ;GSM3.c: 238:     SendCommand("ATA\r\n");
  3389     02D5  3087               	movlw	(low ((STR_14-__stringbase)| (0+32768)))& (0+255)
  3390     02D6  1283               	bcf	3,5	;RP0=0, select bank0
  3391     02D7  1303               	bcf	3,6	;RP1=0, select bank0
  3392     02D8  00D7               	movwf	SendCommand@command
  3393     02D9  3080               	movlw	128
  3394     02DA  00D8               	movwf	SendCommand@command+1
  3395     02DB  120A  118A  27CD  120A  118A  	fcall	_SendCommand
  3396     02E0                     l175:
  3397     02E0  0008               	return
  3398     02E1                     __end_of_Answer:
  3399                           
  3400                           	psect	text17
  3401     07CD                     __ptext17:	
  3402 ;; *************** function _SendCommand *****************
  3403 ;; Defined at:
  3404 ;;		line 167 in file "GSM3.c"
  3405 ;; Parameters:    Size  Location     Type
  3406 ;;  command         2    4[BANK0 ] PTR const unsigned char 
  3407 ;;		 -> STR_26(3), STR_25(15), rxBuffer(80), STR_23(10), 
  3408 ;;		 -> STR_22(18), STR_21(10), STR_20(3), STR_19(2), 
  3409 ;;		 -> STR_18(3), STR_17(10), STR_16(11), STR_15(6), 
  3410 ;;		 -> STR_14(6), STR_13(4), STR_12(4), STR_11(3), 
  3411 ;;		 -> STR_8(7), STR_6(7), phonenumber(11), 
  3412 ;; Auto vars:     Size  Location     Type
  3413 ;;		None
  3414 ;; Return value:  Size  Location     Type
  3415 ;;                  1    wreg      void 
  3416 ;; Registers used:
  3417 ;;		wreg, fsr0l, fsr0h, btemp+1, pclath
  3418 ;; Tracked objects:
  3419 ;;		On entry : 0/0
  3420 ;;		On exit  : 0/0
  3421 ;;		Unchanged: 0/0
  3422 ;; Data sizes:     COMMON   BANK0   BANK1   BANK3   BANK2
  3423 ;;      Params:         0       2       0       0       0
  3424 ;;      Locals:         0       0       0       0       0
  3425 ;;      Temps:          0       0       0       0       0
  3426 ;;      Totals:         0       2       0       0       0
  3427 ;;Total ram usage:        2 bytes
  3428 ;; Hardware stack levels used: 1
  3429 ;; Hardware stack levels required when called: 3
  3430 ;; This function calls:
  3431 ;;		Nothing
  3432 ;; This function is called by:
  3433 ;;		_main
  3434 ;;		_Init
  3435 ;;		_Call
  3436 ;;		_Answer
  3437 ;;		_End
  3438 ;;		_SendMessage
  3439 ;;		_receiveSMS
  3440 ;;		_processSMS
  3441 ;; This function uses a non-reentrant model
  3442 ;;
  3443                           
  3444     07CD                     _SendCommand:	
  3445                           ;psect for function _SendCommand
  3446                           
  3447     07CD                     l1955:	
  3448                           ;incstack = 0
  3449                           ; Regs used in _SendCommand: [wreg-fsr0h+btemp+1+pclath]
  3450                           
  3451                           
  3452                           ;GSM3.c: 168:     while(*command != '\0') {
  3453     07CD  2FE2               	goto	l1961
  3454     07CE                     l1957:
  3455                           
  3456                           ;GSM3.c: 170:         TXREG = *command;
  3457     07CE  0858               	movf	SendCommand@command+1,w
  3458     07CF  00FF               	movwf	btemp+1
  3459     07D0  0857               	movf	SendCommand@command,w
  3460     07D1  0084               	movwf	4
  3461     07D2  120A  118A  2300  120A  118A  	fcall	stringtab
  3462     07D7  0099               	movwf	25	;volatile
  3463     07D8                     l150:	
  3464                           ;GSM3.c: 171:         while(!TXIF);
  3465                           
  3466     07D8  1E0C               	btfss	12,4	;volatile
  3467     07D9  2FDB               	goto	u2481
  3468     07DA  2FDC               	goto	u2480
  3469     07DB                     u2481:
  3470     07DB  2FD8               	goto	l150
  3471     07DC                     u2480:
  3472     07DC                     l1959:
  3473                           
  3474                           ;GSM3.c: 172:         command++;
  3475     07DC  3001               	movlw	1
  3476     07DD  07D7               	addwf	SendCommand@command,f
  3477     07DE  1803               	skipnc
  3478     07DF  0AD8               	incf	SendCommand@command+1,f
  3479     07E0  3000               	movlw	0
  3480     07E1  07D8               	addwf	SendCommand@command+1,f
  3481     07E2                     l1961:
  3482                           
  3483                           ;GSM3.c: 168:     while(*command != '\0') {
  3484     07E2  1283               	bcf	3,5	;RP0=0, select bank0
  3485     07E3  1303               	bcf	3,6	;RP1=0, select bank0
  3486     07E4  0858               	movf	SendCommand@command+1,w
  3487     07E5  00FF               	movwf	btemp+1
  3488     07E6  0857               	movf	SendCommand@command,w
  3489     07E7  0084               	movwf	4
  3490     07E8  120A  118A  2300  120A  118A  	fcall	stringtab
  3491     07ED  3A00               	xorlw	0
  3492     07EE  1D03               	skipz
  3493     07EF  2FF1               	goto	u2491
  3494     07F0  2FF2               	goto	u2490
  3495     07F1                     u2491:
  3496     07F1  2FCE               	goto	l1957
  3497     07F2                     u2490:
  3498     07F2                     l154:
  3499     07F2  0008               	return
  3500     07F3                     __end_of_SendCommand:
  3501                           
  3502                           	psect	text18
  3503     05DC                     __ptext18:	
  3504 ;; *************** function _ISR *****************
  3505 ;; Defined at:
  3506 ;;		line 41 in file "GSM3.c"
  3507 ;; Parameters:    Size  Location     Type
  3508 ;;		None
  3509 ;; Auto vars:     Size  Location     Type
  3510 ;;  r               1   12[COMMON] unsigned char 
  3511 ;; Return value:  Size  Location     Type
  3512 ;;                  1    wreg      void 
  3513 ;; Registers used:
  3514 ;;		wreg, fsr0l, fsr0h, status,2, status,0, btemp+1, pclath, cstack
  3515 ;; Tracked objects:
  3516 ;;		On entry : 0/0
  3517 ;;		On exit  : 0/0
  3518 ;;		Unchanged: 0/0
  3519 ;; Data sizes:     COMMON   BANK0   BANK1   BANK3   BANK2
  3520 ;;      Params:         0       0       0       0       0
  3521 ;;      Locals:         1       0       0       0       0
  3522 ;;      Temps:          0       4       0       0       0
  3523 ;;      Totals:         1       4       0       0       0
  3524 ;;Total ram usage:        5 bytes
  3525 ;; Hardware stack levels used: 1
  3526 ;; Hardware stack levels required when called: 2
  3527 ;; This function calls:
  3528 ;;		_strcmp
  3529 ;;		_strstr
  3530 ;; This function is called by:
  3531 ;;		Interrupt level 1
  3532 ;; This function uses a non-reentrant model
  3533 ;;
  3534                           
  3535     05DC                     _ISR:	
  3536                           ;psect for function _ISR
  3537                           
  3538     05DC                     i1l1755:
  3539                           
  3540                           ;GSM3.c: 42:    if(RCIF) {
  3541     05DC  1E8C               	btfss	12,5	;volatile
  3542     05DD  2DDF               	goto	u204_21
  3543     05DE  2DE0               	goto	u204_20
  3544     05DF                     u204_21:
  3545     05DF  2E21               	goto	i1l115
  3546     05E0                     u204_20:
  3547     05E0                     i1l1757:
  3548                           
  3549                           ;GSM3.c: 43:        char r=RCREG;
  3550     05E0  081A               	movf	26,w	;volatile
  3551     05E1  00FC               	movwf	ISR@r
  3552     05E2                     i1l1759:
  3553                           
  3554                           ;GSM3.c: 44:        if(r=='\n'){
  3555     05E2  300A               	movlw	10
  3556     05E3  067C               	xorwf	ISR@r,w
  3557     05E4  1D03               	btfss	3,2
  3558     05E5  2DE7               	goto	u205_21
  3559     05E6  2DE8               	goto	u205_20
  3560     05E7                     u205_21:
  3561     05E7  2E14               	goto	i1l1773
  3562     05E8                     u205_20:
  3563     05E8                     i1l1761:
  3564                           
  3565                           ;GSM3.c: 45:            g[j-1]='\0';
  3566     05E8  0824               	movf	_j,w
  3567     05E9  3E29               	addlw	(low ((_g| 0+255)))& (0+255)
  3568     05EA  0084               	movwf	4
  3569     05EB  1383               	bcf	3,7	;select IRP bank0
  3570     05EC  0180               	clrf	0
  3571     05ED                     i1l1763:
  3572                           
  3573                           ;GSM3.c: 46:            j=0;
  3574     05ED  01A4               	clrf	_j
  3575     05EE  01A5               	clrf	_j+1
  3576     05EF                     i1l1765:
  3577                           
  3578                           ;GSM3.c: 47:          if(!strcmp(g,"RING")){
  3579     05EF  3093               	movlw	(low ((STR_1-__stringbase)| (0+32768)))& (0+255)
  3580     05F0  00F0               	movwf	strcmp@r
  3581     05F1  302A               	movlw	(low (_g| 0))& (0+255)
  3582     05F2  120A  118A  2747  120A  118A  	fcall	_strcmp
  3583     05F7  0870               	movf	?_strcmp,w
  3584     05F8  0471               	iorwf	?_strcmp+1,w
  3585     05F9  1D03               	btfss	3,2
  3586     05FA  2DFC               	goto	u206_21
  3587     05FB  2DFD               	goto	u206_20
  3588     05FC                     u206_21:
  3589     05FC  2E02               	goto	i1l1769
  3590     05FD                     u206_20:
  3591     05FD                     i1l1767:
  3592                           
  3593                           ;GSM3.c: 48:              incoming=1;
  3594     05FD  1283               	bcf	3,5	;RP0=0, select bank0
  3595     05FE  1303               	bcf	3,6	;RP1=0, select bank0
  3596     05FF  01A9               	clrf	_incoming
  3597     0600  0AA9               	incf	_incoming,f
  3598                           
  3599                           ;GSM3.c: 49:          }
  3600     0601  2E21               	goto	i1l115
  3601     0602                     i1l1769:
  3602     0602  30C0               	movlw	(low (_m| 0))& (0+255)
  3603     0603  00F6               	movwf	strstr@n
  3604     0604  302A               	movlw	(low (_g| 0))& (0+255)
  3605     0605  120A  118A  267E  120A  118A  	fcall	_strstr
  3606     060A  3A00               	xorlw	0
  3607     060B  1903               	skipnz
  3608     060C  2E0E               	goto	u207_21
  3609     060D  2E0F               	goto	u207_20
  3610     060E                     u207_21:
  3611     060E  2E21               	goto	i1l114
  3612     060F                     u207_20:
  3613     060F                     i1l1771:
  3614                           
  3615                           ;GSM3.c: 52:              message=1;
  3616     060F  1283               	bcf	3,5	;RP0=0, select bank0
  3617     0610  1303               	bcf	3,6	;RP1=0, select bank0
  3618     0611  01A8               	clrf	_message
  3619     0612  0AA8               	incf	_message,f
  3620     0613  2E21               	goto	i1l115
  3621     0614                     i1l1773:
  3622                           
  3623                           ;GSM3.c: 57:            g[j]=r;
  3624     0614  0824               	movf	_j,w
  3625     0615  3E2A               	addlw	(low (_g| 0))& (0+255)
  3626     0616  0084               	movwf	4
  3627     0617  087C               	movf	ISR@r,w
  3628     0618  1383               	bcf	3,7	;select IRP bank0
  3629     0619  0080               	movwf	0
  3630     061A                     i1l1775:
  3631                           
  3632                           ;GSM3.c: 58:            j++;
  3633     061A  3001               	movlw	1
  3634     061B  07A4               	addwf	_j,f
  3635     061C  1803               	skipnc
  3636     061D  0AA5               	incf	_j+1,f
  3637     061E  3000               	movlw	0
  3638     061F  07A5               	addwf	_j+1,f
  3639     0620  2E21               	goto	i1l115
  3640     0621                     i1l114:	
  3641                           ;GSM3.c: 59:        }
  3642                           
  3643     0621                     i1l115:
  3644     0621  1283               	bcf	3,5	;RP0=0, select bank0
  3645     0622  1303               	bcf	3,6	;RP1=0, select bank0
  3646     0623  0856               	movf	??_ISR+3,w
  3647     0624  00FF               	movwf	btemp+1
  3648     0625  0855               	movf	??_ISR+2,w
  3649     0626  008A               	movwf	10
  3650     0627  0854               	movf	??_ISR+1,w
  3651     0628  0084               	movwf	4
  3652     0629  0E53               	swapf	??_ISR,w
  3653     062A  0083               	movwf	3
  3654     062B  0EFE               	swapf	btemp,f
  3655     062C  0E7E               	swapf	btemp,w
  3656     062D  0009               	retfie
  3657     062E                     __end_of_ISR:
  3658                           
  3659                           	psect	intentry
  3660     0004                     __pintentry:	
  3661                           ;incstack = 0
  3662 ;; hardware stack exceeded
  3663                           ; Regs used in _ISR: [wreg-fsr0h+status,2+status,0+btemp+1+pclath+cstack]
  3664                           
  3665     0004                     interrupt_function:
  3666     007E                     saved_w	set	btemp
  3667     0004  00FE               	movwf	btemp
  3668     0005  0E03               	swapf	3,w
  3669     0006  1283               	bcf	3,5	;RP0=0, select bank0
  3670     0007  1303               	bcf	3,6	;RP1=0, select bank0
  3671     0008  00D3               	movwf	??_ISR
  3672     0009  0804               	movf	4,w
  3673     000A  00D4               	movwf	??_ISR+1
  3674     000B  080A               	movf	10,w
  3675     000C  00D5               	movwf	??_ISR+2
  3676     000D  087F               	movf	btemp+1,w
  3677     000E  00D6               	movwf	??_ISR+3
  3678     000F  120A  118A  2DDC   	ljmp	_ISR
  3679                           
  3680                           	psect	text19
  3681     067E                     __ptext19:	
  3682 ;; *************** function _strstr *****************
  3683 ;; Defined at:
  3684 ;;		line 4 in file "C:\Program Files\Microchip\xc8\v2.45\pic\sources\c99\common\strstr.c"
  3685 ;; Parameters:    Size  Location     Type
  3686 ;;  h               1    wreg     PTR const unsigned char 
  3687 ;;		 -> NULL(0), g(30), 
  3688 ;;  n               1    6[COMMON] PTR const unsigned char 
  3689 ;;		 -> m(30), 
  3690 ;; Auto vars:     Size  Location     Type
  3691 ;;  h               1   11[COMMON] PTR const unsigned char 
  3692 ;;		 -> NULL(0), g(30), 
  3693 ;;  nl              2    9[COMMON] unsigned int 
  3694 ;; Return value:  Size  Location     Type
  3695 ;;                  1    wreg      PTR unsigned char 
  3696 ;; Registers used:
  3697 ;;		wreg, fsr0l, fsr0h, status,2, status,0, btemp+1, pclath, cstack
  3698 ;; Tracked objects:
  3699 ;;		On entry : 0/0
  3700 ;;		On exit  : 0/0
  3701 ;;		Unchanged: 0/0
  3702 ;; Data sizes:     COMMON   BANK0   BANK1   BANK3   BANK2
  3703 ;;      Params:         1       0       0       0       0
  3704 ;;      Locals:         3       0       0       0       0
  3705 ;;      Temps:          2       0       0       0       0
  3706 ;;      Totals:         6       0       0       0       0
  3707 ;;Total ram usage:        6 bytes
  3708 ;; Hardware stack levels used: 1
  3709 ;; Hardware stack levels required when called: 1
  3710 ;; This function calls:
  3711 ;;		_strchr
  3712 ;;		_strlen
  3713 ;;		_strncmp
  3714 ;; This function is called by:
  3715 ;;		_ISR
  3716 ;; This function uses a non-reentrant model
  3717 ;;
  3718                           
  3719     067E                     _strstr:	
  3720                           ;psect for function _strstr
  3721                           
  3722                           
  3723                           ;incstack = 0
  3724 ;; hardware stack exceeded
  3725                           ; Regs used in _strstr: [wreg-fsr0h+status,2+status,0+btemp+1+pclath+cstack]
  3726                           ;strstr@h stored from wreg
  3727     067E  00FB               	movwf	strstr@h
  3728     067F                     i1l1553:
  3729     067F  0876               	movf	strstr@n,w
  3730     0680  1903               	btfsc	3,2
  3731     0681  2E83               	goto	u174_21
  3732     0682  2E84               	goto	u174_20
  3733     0683                     u174_21:
  3734     0683  2EC2               	goto	i1l1569
  3735     0684                     u174_20:
  3736     0684                     i1l1555:
  3737     0684  0876               	movf	strstr@n,w
  3738     0685  120A  118A  2297  120A  118A  	fcall	_strlen
  3739     068A  0871               	movf	?_strlen+1,w
  3740     068B  00FA               	movwf	strstr@nl+1
  3741     068C  0870               	movf	?_strlen,w
  3742     068D  00F9               	movwf	strstr@nl
  3743     068E  2EB5               	goto	i1l1565
  3744     068F                     i1l1557:
  3745     068F  0876               	movf	strstr@n,w
  3746     0690  00F0               	movwf	strncmp@r
  3747     0691  087A               	movf	strstr@nl+1,w
  3748     0692  00F2               	movwf	strncmp@n+1
  3749     0693  0879               	movf	strstr@nl,w
  3750     0694  00F1               	movwf	strncmp@n
  3751     0695  087B               	movf	strstr@h,w
  3752     0696  120A  118A  262E  120A  118A  	fcall	_strncmp
  3753     069B  0870               	movf	?_strncmp,w
  3754     069C  0471               	iorwf	?_strncmp+1,w
  3755     069D  1D03               	btfss	3,2
  3756     069E  2EA0               	goto	u175_21
  3757     069F  2EA1               	goto	u175_20
  3758     06A0                     u175_21:
  3759     06A0  2EA3               	goto	i1l1563
  3760     06A1                     u175_20:
  3761     06A1                     i1l1559:
  3762     06A1  087B               	movf	strstr@h,w
  3763     06A2  2EC3               	goto	i1l873
  3764     06A3                     i1l1563:
  3765     06A3  0876               	movf	strstr@n,w
  3766     06A4  0084               	movwf	4
  3767     06A5  1383               	bcf	3,7	;select IRP bank0
  3768     06A6  0800               	movf	0,w
  3769     06A7  00F7               	movwf	??_strstr
  3770     06A8  01F8               	clrf	??_strstr+1
  3771     06A9  0877               	movf	??_strstr,w
  3772     06AA  00F0               	movwf	strchr@c
  3773     06AB  0878               	movf	??_strstr+1,w
  3774     06AC  00F1               	movwf	strchr@c+1
  3775     06AD  087B               	movf	strstr@h,w
  3776     06AE  3E01               	addlw	1
  3777     06AF  120A  118A  22AE  120A  118A  	fcall	_strchr
  3778     06B4  00FB               	movwf	strstr@h
  3779     06B5                     i1l1565:
  3780     06B5  087B               	movf	strstr@h,w
  3781     06B6  1903               	btfsc	3,2
  3782     06B7  2EB9               	goto	u176_21
  3783     06B8  2EBA               	goto	u176_20
  3784     06B9                     u176_21:
  3785     06B9  2EC2               	goto	i1l1569
  3786     06BA                     u176_20:
  3787     06BA                     i1l1567:
  3788     06BA  087B               	movf	strstr@h,w
  3789     06BB  0084               	movwf	4
  3790     06BC  1383               	bcf	3,7	;select IRP bank0
  3791     06BD  0800               	movf	0,w
  3792     06BE  1D03               	btfss	3,2
  3793     06BF  2EC1               	goto	u177_21
  3794     06C0  2EC2               	goto	u177_20
  3795     06C1                     u177_21:
  3796     06C1  2E8F               	goto	i1l1557
  3797     06C2                     u177_20:
  3798     06C2                     i1l1569:
  3799     06C2  3000               	movlw	0
  3800     06C3                     i1l873:
  3801     06C3  0008               	return
  3802     06C4                     __end_of_strstr:
  3803                           
  3804                           	psect	text20
  3805     062E                     __ptext20:	
  3806 ;; *************** function _strncmp *****************
  3807 ;; Defined at:
  3808 ;;		line 3 in file "C:\Program Files\Microchip\xc8\v2.45\pic\sources\c99\common\strncmp.c"
  3809 ;; Parameters:    Size  Location     Type
  3810 ;;  l               1    wreg     PTR const unsigned char 
  3811 ;;		 -> NULL(0), g(30), 
  3812 ;;  r               1    0[COMMON] PTR const unsigned char 
  3813 ;;		 -> m(30), 
  3814 ;;  n               2    1[COMMON] unsigned int 
  3815 ;; Auto vars:     Size  Location     Type
  3816 ;;  l               1    5[COMMON] PTR const unsigned char 
  3817 ;;		 -> NULL(0), g(30), 
  3818 ;; Return value:  Size  Location     Type
  3819 ;;                  2    0[COMMON] int 
  3820 ;; Registers used:
  3821 ;;		wreg, fsr0l, fsr0h, status,2, status,0, btemp+1
  3822 ;; Tracked objects:
  3823 ;;		On entry : 0/0
  3824 ;;		On exit  : 0/0
  3825 ;;		Unchanged: 0/0
  3826 ;; Data sizes:     COMMON   BANK0   BANK1   BANK3   BANK2
  3827 ;;      Params:         3       0       0       0       0
  3828 ;;      Locals:         1       0       0       0       0
  3829 ;;      Temps:          2       0       0       0       0
  3830 ;;      Totals:         6       0       0       0       0
  3831 ;;Total ram usage:        6 bytes
  3832 ;; Hardware stack levels used: 1
  3833 ;; This function calls:
  3834 ;;		Nothing
  3835 ;; This function is called by:
  3836 ;;		_strstr
  3837 ;; This function uses a non-reentrant model
  3838 ;;
  3839                           
  3840     062E                     _strncmp:	
  3841                           ;psect for function _strncmp
  3842                           
  3843                           
  3844                           ;incstack = 0
  3845 ;; hardware stack exceeded
  3846                           ; Regs used in _strncmp: [wreg-fsr0h+status,2+status,0+btemp+1]
  3847                           ;strncmp@l stored from wreg
  3848     062E  00F5               	movwf	strncmp@l
  3849     062F                     i1l1505:
  3850     062F  3001               	movlw	1
  3851     0630  02F1               	subwf	strncmp@n,f
  3852     0631  3000               	movlw	0
  3853     0632  1C03               	skipc
  3854     0633  03F2               	decf	strncmp@n+1,f
  3855     0634  02F2               	subwf	strncmp@n+1,f
  3856     0635  0A71               	incf	strncmp@n,w
  3857     0636  1D03               	skipz
  3858     0637  2E3C               	goto	u165_21
  3859     0638  0A72               	incf	strncmp@n+1,w
  3860     0639  1D03               	btfss	3,2
  3861     063A  2E3C               	goto	u165_21
  3862     063B  2E3D               	goto	u165_20
  3863     063C                     u165_21:
  3864     063C  2E4E               	goto	i1l1515
  3865     063D                     u165_20:
  3866     063D                     i1l1507:
  3867     063D  01F0               	clrf	?_strncmp
  3868     063E  01F1               	clrf	?_strncmp+1
  3869     063F  2E7D               	goto	i1l892
  3870     0640                     i1l1511:
  3871     0640  3001               	movlw	1
  3872     0641  00FF               	movwf	btemp+1
  3873     0642  087F               	movf	btemp+1,w
  3874     0643  07F5               	addwf	strncmp@l,f
  3875     0644  3001               	movlw	1
  3876     0645  00FF               	movwf	btemp+1
  3877     0646  087F               	movf	btemp+1,w
  3878     0647  07F0               	addwf	strncmp@r,f
  3879     0648                     i1l1513:
  3880     0648  3001               	movlw	1
  3881     0649  02F1               	subwf	strncmp@n,f
  3882     064A  3000               	movlw	0
  3883     064B  1C03               	skipc
  3884     064C  03F2               	decf	strncmp@n+1,f
  3885     064D  02F2               	subwf	strncmp@n+1,f
  3886     064E                     i1l1515:
  3887     064E  0875               	movf	strncmp@l,w
  3888     064F  0084               	movwf	4
  3889     0650  1383               	bcf	3,7	;select IRP bank0
  3890     0651  0800               	movf	0,w
  3891     0652  1903               	btfsc	3,2
  3892     0653  2E55               	goto	u166_21
  3893     0654  2E56               	goto	u166_20
  3894     0655                     u166_21:
  3895     0655  2E6F               	goto	i1l1523
  3896     0656                     u166_20:
  3897     0656                     i1l1517:
  3898     0656  0870               	movf	strncmp@r,w
  3899     0657  0084               	movwf	4
  3900     0658  0800               	movf	0,w
  3901     0659  1903               	btfsc	3,2
  3902     065A  2E5C               	goto	u167_21
  3903     065B  2E5D               	goto	u167_20
  3904     065C                     u167_21:
  3905     065C  2E6F               	goto	i1l1523
  3906     065D                     u167_20:
  3907     065D                     i1l1519:
  3908     065D  0871               	movf	strncmp@n,w
  3909     065E  0472               	iorwf	strncmp@n+1,w
  3910     065F  1903               	btfsc	3,2
  3911     0660  2E62               	goto	u168_21
  3912     0661  2E63               	goto	u168_20
  3913     0662                     u168_21:
  3914     0662  2E6F               	goto	i1l1523
  3915     0663                     u168_20:
  3916     0663                     i1l1521:
  3917     0663  0870               	movf	strncmp@r,w
  3918     0664  0084               	movwf	4
  3919     0665  0800               	movf	0,w
  3920     0666  00F3               	movwf	??_strncmp
  3921     0667  0875               	movf	strncmp@l,w
  3922     0668  0084               	movwf	4
  3923     0669  0800               	movf	0,w
  3924     066A  0673               	xorwf	??_strncmp,w
  3925     066B  1903               	skipnz
  3926     066C  2E6E               	goto	u169_21
  3927     066D  2E6F               	goto	u169_20
  3928     066E                     u169_21:
  3929     066E  2E40               	goto	i1l1511
  3930     066F                     u169_20:
  3931     066F                     i1l1523:
  3932     066F  0870               	movf	strncmp@r,w
  3933     0670  0084               	movwf	4
  3934     0671  0800               	movf	0,w
  3935     0672  00F3               	movwf	??_strncmp
  3936     0673  0875               	movf	strncmp@l,w
  3937     0674  0084               	movwf	4
  3938     0675  0800               	movf	0,w
  3939     0676  00F4               	movwf	??_strncmp+1
  3940     0677  0873               	movf	??_strncmp,w
  3941     0678  0274               	subwf	??_strncmp+1,w
  3942     0679  00F0               	movwf	?_strncmp
  3943     067A  01F1               	clrf	?_strncmp+1
  3944     067B  1C03               	skipc
  3945     067C  03F1               	decf	?_strncmp+1,f
  3946     067D                     i1l892:
  3947     067D  0008               	return
  3948     067E                     __end_of_strncmp:
  3949                           
  3950                           	psect	text21
  3951     0297                     __ptext21:	
  3952 ;; *************** function _strlen *****************
  3953 ;; Defined at:
  3954 ;;		line 5 in file "C:\Program Files\Microchip\xc8\v2.45\pic\sources\c99\common\strlen.c"
  3955 ;; Parameters:    Size  Location     Type
  3956 ;;  s               1    wreg     PTR const unsigned char 
  3957 ;;		 -> m(30), 
  3958 ;; Auto vars:     Size  Location     Type
  3959 ;;  s               1    3[COMMON] PTR const unsigned char 
  3960 ;;		 -> m(30), 
  3961 ;;  a               1    2[COMMON] PTR const unsigned char 
  3962 ;;		 -> m(30), 
  3963 ;; Return value:  Size  Location     Type
  3964 ;;                  2    0[COMMON] unsigned int 
  3965 ;; Registers used:
  3966 ;;		wreg, fsr0l, fsr0h, status,2, status,0, btemp+1
  3967 ;; Tracked objects:
  3968 ;;		On entry : 0/0
  3969 ;;		On exit  : 0/0
  3970 ;;		Unchanged: 0/0
  3971 ;; Data sizes:     COMMON   BANK0   BANK1   BANK3   BANK2
  3972 ;;      Params:         2       0       0       0       0
  3973 ;;      Locals:         2       0       0       0       0
  3974 ;;      Temps:          0       0       0       0       0
  3975 ;;      Totals:         4       0       0       0       0
  3976 ;;Total ram usage:        4 bytes
  3977 ;; Hardware stack levels used: 1
  3978 ;; This function calls:
  3979 ;;		Nothing
  3980 ;; This function is called by:
  3981 ;;		_strstr
  3982 ;; This function uses a non-reentrant model
  3983 ;;
  3984                           
  3985     0297                     _strlen:	
  3986                           ;psect for function _strlen
  3987                           
  3988                           
  3989                           ;incstack = 0
  3990 ;; hardware stack exceeded
  3991                           ; Regs used in _strlen: [wreg-fsr0h+status,2+status,0+btemp+1]
  3992                           ;strlen@s stored from wreg
  3993     0297  00F3               	movwf	strlen@s
  3994     0298                     i1l1495:
  3995     0298  0873               	movf	strlen@s,w
  3996     0299  00F2               	movwf	strlen@a
  3997     029A  2A9F               	goto	i1l1499
  3998     029B                     i1l1497:
  3999     029B  3001               	movlw	1
  4000     029C  00FF               	movwf	btemp+1
  4001     029D  087F               	movf	btemp+1,w
  4002     029E  07F3               	addwf	strlen@s,f
  4003     029F                     i1l1499:
  4004     029F  0873               	movf	strlen@s,w
  4005     02A0  0084               	movwf	4
  4006     02A1  1383               	bcf	3,7	;select IRP bank0
  4007     02A2  0800               	movf	0,w
  4008     02A3  1D03               	btfss	3,2
  4009     02A4  2AA6               	goto	u164_21
  4010     02A5  2AA7               	goto	u164_20
  4011     02A6                     u164_21:
  4012     02A6  2A9B               	goto	i1l1497
  4013     02A7                     u164_20:
  4014     02A7                     i1l1501:
  4015     02A7  0872               	movf	strlen@a,w
  4016     02A8  0273               	subwf	strlen@s,w
  4017     02A9  00F0               	movwf	?_strlen
  4018     02AA  01F1               	clrf	?_strlen+1
  4019     02AB  1BF0               	btfsc	?_strlen,7
  4020     02AC  03F1               	decf	?_strlen+1,f
  4021     02AD                     i1l888:
  4022     02AD  0008               	return
  4023     02AE                     __end_of_strlen:
  4024                           
  4025                           	psect	text22
  4026     02AE                     __ptext22:	
  4027 ;; *************** function _strchr *****************
  4028 ;; Defined at:
  4029 ;;		line 3 in file "C:\Program Files\Microchip\xc8\v2.45\pic\sources\c99\common\strchr.c"
  4030 ;; Parameters:    Size  Location     Type
  4031 ;;  s               1    wreg     PTR const unsigned char 
  4032 ;;		 -> NULL(0), g(30), 
  4033 ;;  c               2    0[COMMON] int 
  4034 ;; Auto vars:     Size  Location     Type
  4035 ;;  s               1    2[COMMON] PTR const unsigned char 
  4036 ;;		 -> NULL(0), g(30), 
  4037 ;; Return value:  Size  Location     Type
  4038 ;;                  1    wreg      PTR unsigned char 
  4039 ;; Registers used:
  4040 ;;		wreg, fsr0l, fsr0h, status,2, status,0
  4041 ;; Tracked objects:
  4042 ;;		On entry : 0/0
  4043 ;;		On exit  : 0/0
  4044 ;;		Unchanged: 0/0
  4045 ;; Data sizes:     COMMON   BANK0   BANK1   BANK3   BANK2
  4046 ;;      Params:         2       0       0       0       0
  4047 ;;      Locals:         1       0       0       0       0
  4048 ;;      Temps:          0       0       0       0       0
  4049 ;;      Totals:         3       0       0       0       0
  4050 ;;Total ram usage:        3 bytes
  4051 ;; Hardware stack levels used: 1
  4052 ;; This function calls:
  4053 ;;		Nothing
  4054 ;; This function is called by:
  4055 ;;		_strstr
  4056 ;; This function uses a non-reentrant model
  4057 ;;
  4058                           
  4059     02AE                     _strchr:	
  4060                           ;psect for function _strchr
  4061                           
  4062                           
  4063                           ;incstack = 0
  4064 ;; hardware stack exceeded
  4065                           ; Regs used in _strchr: [wreg-fsr0h+status,2+status,0]
  4066                           ;strchr@s stored from wreg
  4067     02AE  00F2               	movwf	strchr@s
  4068     02AF                     i1l879:
  4069     02AF                     i1l1527:
  4070     02AF  0872               	movf	strchr@s,w
  4071     02B0  0084               	movwf	4
  4072     02B1  1383               	bcf	3,7	;select IRP bank0
  4073     02B2  0800               	movf	0,w
  4074     02B3  0670               	xorwf	strchr@c,w
  4075     02B4  1D03               	skipz
  4076     02B5  2AB7               	goto	u170_21
  4077     02B6  2AB8               	goto	u170_20
  4078     02B7                     u170_21:
  4079     02B7  2ABA               	goto	i1l1533
  4080     02B8                     u170_20:
  4081     02B8                     i1l1529:
  4082     02B8  0872               	movf	strchr@s,w
  4083     02B9  2AC4               	goto	i1l881
  4084     02BA                     i1l1533:
  4085     02BA  0872               	movf	strchr@s,w
  4086     02BB  0084               	movwf	4
  4087     02BC  3001               	movlw	1
  4088     02BD  07F2               	addwf	strchr@s,f
  4089     02BE  0800               	movf	0,w
  4090     02BF  1D03               	btfss	3,2
  4091     02C0  2AC2               	goto	u171_21
  4092     02C1  2AC3               	goto	u171_20
  4093     02C2                     u171_21:
  4094     02C2  2AAF               	goto	i1l879
  4095     02C3                     u171_20:
  4096     02C3                     i1l1535:
  4097     02C3  3000               	movlw	0
  4098     02C4                     i1l881:
  4099     02C4  0008               	return
  4100     02C5                     __end_of_strchr:
  4101                           
  4102                           	psect	text23
  4103     0747                     __ptext23:	
  4104 ;; *************** function _strcmp *****************
  4105 ;; Defined at:
  4106 ;;		line 3 in file "C:\Program Files\Microchip\xc8\v2.45\pic\sources\c99\common\strcmp.c"
  4107 ;; Parameters:    Size  Location     Type
  4108 ;;  l               1    wreg     PTR const unsigned char 
  4109 ;;		 -> g(30), 
  4110 ;;  r               1    0[COMMON] PTR const unsigned char 
  4111 ;;		 -> STR_2(5), 
  4112 ;; Auto vars:     Size  Location     Type
  4113 ;;  l               1    4[COMMON] PTR const unsigned char 
  4114 ;;		 -> g(30), 
  4115 ;; Return value:  Size  Location     Type
  4116 ;;                  2    0[COMMON] int 
  4117 ;; Registers used:
  4118 ;;		wreg, fsr0l, fsr0h, status,2, status,0, btemp+1, pclath
  4119 ;; Tracked objects:
  4120 ;;		On entry : 0/0
  4121 ;;		On exit  : 0/0
  4122 ;;		Unchanged: 0/0
  4123 ;; Data sizes:     COMMON   BANK0   BANK1   BANK3   BANK2
  4124 ;;      Params:         2       0       0       0       0
  4125 ;;      Locals:         1       0       0       0       0
  4126 ;;      Temps:          2       0       0       0       0
  4127 ;;      Totals:         5       0       0       0       0
  4128 ;;Total ram usage:        5 bytes
  4129 ;; Hardware stack levels used: 2
  4130 ;; This function calls:
  4131 ;;		Nothing
  4132 ;; This function is called by:
  4133 ;;		_ISR
  4134 ;; This function uses a non-reentrant model
  4135 ;;
  4136                           
  4137     0747                     _strcmp:	
  4138                           ;psect for function _strcmp
  4139                           
  4140                           
  4141                           ;incstack = 0
  4142 ;; hardware stack exceeded
  4143                           ; Regs used in _strcmp: [wreg-fsr0h+status,2+status,0+btemp+1+pclath]
  4144                           ;strcmp@l stored from wreg
  4145     0747  00F4               	movwf	strcmp@l
  4146     0748                     i1l1539:
  4147     0748  2F51               	goto	i1l1545
  4148     0749                     i1l1541:
  4149     0749  3001               	movlw	1
  4150     074A  00FF               	movwf	btemp+1
  4151     074B  087F               	movf	btemp+1,w
  4152     074C  07F4               	addwf	strcmp@l,f
  4153     074D                     i1l1543:
  4154     074D  3001               	movlw	1
  4155     074E  00FF               	movwf	btemp+1
  4156     074F  087F               	movf	btemp+1,w
  4157     0750  07F0               	addwf	strcmp@r,f
  4158     0751                     i1l1545:
  4159     0751  0870               	movf	strcmp@r,w
  4160     0752  0084               	movwf	4
  4161     0753  120A  118A  230A  120A  118A  	fcall	stringdir
  4162     0758  00F2               	movwf	??_strcmp
  4163     0759  0874               	movf	strcmp@l,w
  4164     075A  0084               	movwf	4
  4165     075B  1383               	bcf	3,7	;select IRP bank0
  4166     075C  0800               	movf	0,w
  4167     075D  0672               	xorwf	??_strcmp,w
  4168     075E  1D03               	skipz
  4169     075F  2F61               	goto	u172_21
  4170     0760  2F62               	goto	u172_20
  4171     0761                     u172_21:
  4172     0761  2F69               	goto	i1l1549
  4173     0762                     u172_20:
  4174     0762                     i1l1547:
  4175     0762  0874               	movf	strcmp@l,w
  4176     0763  0084               	movwf	4
  4177     0764  0800               	movf	0,w
  4178     0765  1D03               	btfss	3,2
  4179     0766  2F68               	goto	u173_21
  4180     0767  2F69               	goto	u173_20
  4181     0768                     u173_21:
  4182     0768  2F49               	goto	i1l1541
  4183     0769                     u173_20:
  4184     0769                     i1l1549:
  4185     0769  0870               	movf	strcmp@r,w
  4186     076A  0084               	movwf	4
  4187     076B  120A  118A  230A  120A  118A  	fcall	stringdir
  4188     0770  00F2               	movwf	??_strcmp
  4189     0771  0874               	movf	strcmp@l,w
  4190     0772  0084               	movwf	4
  4191     0773  0800               	movf	0,w
  4192     0774  00F3               	movwf	??_strcmp+1
  4193     0775  0872               	movf	??_strcmp,w
  4194     0776  0273               	subwf	??_strcmp+1,w
  4195     0777  00F0               	movwf	?_strcmp
  4196     0778  01F1               	clrf	?_strcmp+1
  4197     0779  1C03               	skipc
  4198     077A  03F1               	decf	?_strcmp+1,f
  4199     077B                     i1l860:
  4200     077B  0008               	return
  4201     077C                     __end_of_strcmp:
  4202     007E                     btemp	set	126	;btemp
  4203     007E                     wtemp0	set	126
  4204                           
  4205                           	psect	config
  4206                           
  4207                           ;Config register CONFIG @ 0x2007
  4208                           ;	Oscillator Selection bits
  4209                           ;	FOSC = XT, XT oscillator
  4210                           ;	Watchdog Timer Enable bit
  4211                           ;	WDTE = OFF, WDT disabled
  4212                           ;	Power-up Timer Enable bit
  4213                           ;	PWRTE = OFF, PWRT disabled
  4214                           ;	Brown-out Reset Enable bit
  4215                           ;	BOREN = OFF, BOR disabled
  4216                           ;	Low-Voltage (Single-Supply) In-Circuit Serial Programming Enable bit
  4217                           ;	LVP = OFF, RB3 is digital I/O, HV on MCLR must be used for programming
  4218                           ;	Data EEPROM Memory Code Protection bit
  4219                           ;	CPD = OFF, Data EEPROM code protection off
  4220                           ;	Flash Program Memory Write Enable bits
  4221                           ;	WRT = OFF, Write protection off; all program memory may be written to by EECON control
  4222                           ;	In-Circuit Debugger Mode bit
  4223                           ;	DEBUG = 0x1, unprogrammed default
  4224                           ;	Flash Program Memory Code Protection bit
  4225                           ;	CP = OFF, Code protection off
  4226     2007                     	org	8199
  4227     2007  3F39               	dw	16185

Data Sizes:
    Strings     173
    Constant    0
    Data        0
    BSS         193
    Persistent  0
    Stack       0

Auto Spaces:
    Space          Size  Autos    Used
    COMMON           14     13      13
    BANK0            80     25      76
    BANK1            80      2      64
    BANK3            96      0      80
    BANK2            96      0       0

Pointer List with Targets:

    Call@phoneNumber	PTR const unsigned char  size(1) Largest target is 11
		 -> phonenumber(BANK0[11]), 

    fputc@fp	PTR struct _IO_FILE size(1) Largest target is 0
		 -> NULL(NULL[0]), 

    fputc@fp$.$buffer	PTR unsigned char  size(1) Largest target is 0

    fputc@fp$.$source	PTR const unsigned char  size(1) Largest target is 0

    printf@ap	PTR void [1] size(1) Largest target is 2
		 -> ?_printf(COMMON[2]), 

    printf@fmt	PTR const unsigned char  size(1) Largest target is 2
		 -> STR_27(CODE[2]), STR_28(CODE[2]), STR_29(CODE[2]), STR_30(CODE[2]), 
		 -> STR_31(CODE[2]), STR_32(CODE[2]), STR_33(CODE[2]), STR_34(CODE[2]), 
		 -> STR_35(CODE[2]), STR_36(CODE[2]), STR_37(CODE[2]), STR_38(CODE[2]), 

    S667$buffer	PTR unsigned char  size(1) Largest target is 0

    S667$source	PTR const unsigned char  size(1) Largest target is 0

    SendCommand@command	PTR const unsigned char  size(2) Largest target is 80
		 -> phonenumber(BANK0[11]), rxBuffer(BANK3[80]), STR_11(CODE[3]), STR_12(CODE[4]), 
		 -> STR_13(CODE[4]), STR_14(CODE[6]), STR_15(CODE[6]), STR_16(CODE[11]), 
		 -> STR_17(CODE[10]), STR_18(CODE[3]), STR_19(CODE[2]), STR_20(CODE[3]), 
		 -> STR_21(CODE[10]), STR_22(CODE[18]), STR_23(CODE[10]), STR_25(CODE[15]), 
		 -> STR_26(CODE[3]), STR_6(CODE[7]), STR_8(CODE[7]), 

    SendMessage@message	PTR const unsigned char  size(1) Largest target is 7
		 -> STR_6(CODE[7]), 

    SendMessage@phoneNumber	PTR const unsigned char  size(1) Largest target is 11
		 -> phonenumber(BANK0[11]), 

    show@s	PTR unsigned char  size(2) Largest target is 13
		 -> phonenumber(BANK0[11]), STR_10(CODE[4]), STR_24(CODE[11]), STR_3(CODE[8]), 
		 -> STR_4(CODE[8]), STR_5(CODE[7]), STR_7(CODE[13]), STR_9(CODE[7]), 

    sp__strchr	PTR unsigned char  size(1) Largest target is 30
		 -> g(BANK0[30]), NULL(NULL[0]), 

    sp__strstr	PTR unsigned char  size(1) Largest target is 30
		 -> g(BANK0[30]), NULL(NULL[0]), 

    strchr@s	PTR const unsigned char  size(1) Largest target is 30
		 -> g(BANK0[30]), NULL(NULL[0]), 

    strcmp@l	PTR const unsigned char  size(1) Largest target is 30
		 -> g(BANK0[30]), 

    strcmp@r	PTR const unsigned char  size(1) Largest target is 5
		 -> STR_2(CODE[5]), 

    strlen@a	PTR const unsigned char  size(1) Largest target is 30
		 -> m(BANK1[30]), 

    strlen@s	PTR const unsigned char  size(1) Largest target is 30
		 -> m(BANK1[30]), 

    strncmp@l	PTR const unsigned char  size(1) Largest target is 30
		 -> g(BANK0[30]), NULL(NULL[0]), 

    strncmp@r	PTR const unsigned char  size(1) Largest target is 30
		 -> m(BANK1[30]), 

    strstr@h	PTR const unsigned char  size(1) Largest target is 30
		 -> g(BANK0[30]), NULL(NULL[0]), 

    strstr@n	PTR const unsigned char  size(1) Largest target is 30
		 -> m(BANK1[30]), 

    vfpfcnvrt@ap	PTR PTR void  size(1) Largest target is 1
		 -> printf@ap(BANK0[1]), 

    vfpfcnvrt@fmt	PTR PTR unsigned char  size(1) Largest target is 1
		 -> vfprintf@cfmt(BANK0[1]), 

    vfpfcnvrt@fp	PTR struct _IO_FILE size(1) Largest target is 0
		 -> NULL(NULL[0]), 

    vfprintf@ap	PTR PTR void  size(1) Largest target is 1
		 -> printf@ap(BANK0[1]), 

    vfprintf@cfmt	PTR unsigned char  size(1) Largest target is 2
		 -> STR_27(CODE[2]), STR_28(CODE[2]), STR_29(CODE[2]), STR_30(CODE[2]), 
		 -> STR_31(CODE[2]), STR_32(CODE[2]), STR_33(CODE[2]), STR_34(CODE[2]), 
		 -> STR_35(CODE[2]), STR_36(CODE[2]), STR_37(CODE[2]), STR_38(CODE[2]), 

    vfprintf@fmt	PTR const unsigned char  size(1) Largest target is 2
		 -> STR_27(CODE[2]), STR_28(CODE[2]), STR_29(CODE[2]), STR_30(CODE[2]), 
		 -> STR_31(CODE[2]), STR_32(CODE[2]), STR_33(CODE[2]), STR_34(CODE[2]), 
		 -> STR_35(CODE[2]), STR_36(CODE[2]), STR_37(CODE[2]), STR_38(CODE[2]), 

    vfprintf@fp	PTR struct _IO_FILE size(1) Largest target is 0
		 -> NULL(NULL[0]), 


Critical Paths under _main in COMMON

    None.

Critical Paths under _ISR in COMMON

    _ISR->_strstr
    _strstr->_strncmp

Critical Paths under _main in BANK0

    _show->_dat
    _lcd_init->_cmd
    _key->_printf
    _printf->_vfprintf
    _vfprintf->_vfpfcnvrt
    _vfpfcnvrt->_fputc
    _SendMessage->_SendCommand
    _LCD_Clear->_cmd
    _Init->_SendCommand
    _End->_SendCommand
    _Call->_SendCommand
    _Answer->_SendCommand

Critical Paths under _ISR in BANK0

    None.

Critical Paths under _main in BANK1

    None.

Critical Paths under _ISR in BANK1

    None.

Critical Paths under _main in BANK3

    None.

Critical Paths under _ISR in BANK3

    None.

Critical Paths under _main in BANK2

    None.

Critical Paths under _ISR in BANK2

    None.

Call Graph Tables:

 ---------------------------------------------------------------------------------
 (Depth) Function   	        Calls       Base Space   Used Autos Params    Refs
 ---------------------------------------------------------------------------------
 (0) _main                                                 6     6      0   15443
                                             23 BANK0      2     2      0
                                              0 BANK1      2     2      0
                             _Answer
                               _Call
                                _End
                               _Init
                          _LCD_Clear
                        _SendCommand
                        _SendMessage
                                _cmd
                                _key
                           _lcd_init
                               _show
 ---------------------------------------------------------------------------------
 (1) _show                                                 2     0      2    1033
                                              7 BANK0      2     0      2
                                _dat
 ---------------------------------------------------------------------------------
 (2) _dat                                                  3     3      0     248
                                              4 BANK0      3     3      0
 ---------------------------------------------------------------------------------
 (1) _lcd_init                                             2     2      0     248
                                              7 BANK0      2     2      0
                                _cmd
 ---------------------------------------------------------------------------------
 (1) _key                                                  0     0      0    2122
                             _printf
 ---------------------------------------------------------------------------------
 (2) _printf                                               4     4      0    2122
                                             21 BANK0      2     2      0
                           _vfprintf
 ---------------------------------------------------------------------------------
 (3) _vfprintf                                             4     2      2    1615
                                             17 BANK0      4     2      2
                          _vfpfcnvrt
 ---------------------------------------------------------------------------------
 (4) _vfpfcnvrt                                            9     7      2    1198
                                             12 BANK0      5     3      2
                              _fputc
 ---------------------------------------------------------------------------------
 (5) _fputc                                                8     5      3     777
                                              4 BANK0      8     5      3
                              _putch
 ---------------------------------------------------------------------------------
 (6) _putch                                                1     1      0       0
 ---------------------------------------------------------------------------------
 (1) _SendMessage                                          5     4      1    2053
                                              6 BANK0      5     4      1
                        _SendCommand
 ---------------------------------------------------------------------------------
 (1) _LCD_Clear                                            0     0      0     248
                                _cmd
 ---------------------------------------------------------------------------------
 (2) _cmd                                                  3     3      0     248
                                              4 BANK0      3     3      0
 ---------------------------------------------------------------------------------
 (1) _Init                                                 3     3      0    1865
                                              6 BANK0      3     3      0
                        _SendCommand
 ---------------------------------------------------------------------------------
 (1) _End                                                  0     0      0    1865
                        _SendCommand
 ---------------------------------------------------------------------------------
 (1) _Call                                                 1     1      0    1932
                                              6 BANK0      1     1      0
                        _SendCommand
 ---------------------------------------------------------------------------------
 (1) _Answer                                               0     0      0    1865
                        _SendCommand
 ---------------------------------------------------------------------------------
 (2) _SendCommand                                          2     0      2    1865
                                              4 BANK0      2     0      2
 ---------------------------------------------------------------------------------
 Estimated maximum stack depth 6
 ---------------------------------------------------------------------------------
 (Depth) Function   	        Calls       Base Space   Used Autos Params    Refs
 ---------------------------------------------------------------------------------
 (7) _ISR                                                  5     5      0    1281
                                             12 COMMON     1     1      0
                                              0 BANK0      4     4      0
                             _strcmp
                             _strstr
 ---------------------------------------------------------------------------------
 (8) _strstr                                               6     5      1    1015
                                              6 COMMON     6     5      1
                             _strchr
                             _strlen
                            _strncmp
 ---------------------------------------------------------------------------------
 (9) _strncmp                                              6     3      3     364
                                              0 COMMON     6     3      3
 ---------------------------------------------------------------------------------
 (9) _strlen                                               4     2      2     123
                                              0 COMMON     4     2      2
 ---------------------------------------------------------------------------------
 (9) _strchr                                               3     1      2     197
                                              0 COMMON     3     1      2
 ---------------------------------------------------------------------------------
 (9) _strcmp                                               5     3      2     221
                                              0 COMMON     5     3      2
 ---------------------------------------------------------------------------------
 Estimated maximum stack depth 9
 ---------------------------------------------------------------------------------

 Call Graph Graphs:

 _main (ROOT)
   _Answer
     _SendCommand
   _Call
     _SendCommand
   _End
     _SendCommand
   _Init
     _SendCommand
   _LCD_Clear
     _cmd
   _SendCommand
   _SendMessage
     _SendCommand
   _cmd
   _key
     _printf
       _vfprintf
         _vfpfcnvrt
           _fputc
             _putch
   _lcd_init
     _cmd
   _show
     _dat

 _ISR (ROOT)
   _strcmp
   _strstr
     _strchr
     _strlen
     _strncmp

 Address spaces:
Name               Size   Autos  Total    Cost      Usage
BITCOMMON            E      0       0       0        0.0%
EEDATA             100      0       0       0        0.0%
NULL                 0      0       0       0        0.0%
CODE                 0      0       0       0        0.0%
COMMON               E      D       D       1       92.9%
BITSFR0              0      0       0       1        0.0%
SFR0                 0      0       0       1        0.0%
BITSFR1              0      0       0       2        0.0%
SFR1                 0      0       0       2        0.0%
STACK                0      0       0       2        0.0%
ABS                  0      0      E9       3        0.0%
BITBANK0            50      0       0       4        0.0%
BITSFR3              0      0       0       4        0.0%
SFR3                 0      0       0       4        0.0%
BANK0               50     19      4C       5       95.0%
BITSFR2              0      0       0       5        0.0%
SFR2                 0      0       0       5        0.0%
BITBANK1            50      0       0       6        0.0%
BANK1               50      2      40       7       80.0%
BITBANK3            60      0       0       8        0.0%
BANK3               60      0      50       9       83.3%
BITBANK2            60      0       0      10        0.0%
BANK2               60      0       0      11        0.0%
DATA                 0      0      E9      12        0.0%


Microchip Technology PIC Macro Assembler V2.45 build 20230818022343 
Symbol Table                                                                                   Wed Mar 06 13:43:21 2024

                      _c 0027                        _g 002A                        _j 0024  
                      _m 00C0                        pc 0002                       fsr 0004  
                    l200 015D                      l201 0176                      l210 019C  
                    l205 0252                      l150 07D8                      l230 0203  
                    l222 01D9                      l214 01B3                      l206 0189  
                    l160 0512                      l136 015A                      l154 07F2  
                    l242 0240                      l234 0216                      l226 01F0  
                    l218 01C6                      l139 0746                      l163 0467  
                    l172 0275                      l181 0581                      l157 07A4  
                    l238 022D                      l175 02E0                      l169 07CC  
                    l178 07FE                      l197 02EF                      l800 02D4  
                    l823 0708                      l841 05DB                      l852 07FF  
                    l829 0296                      _GIE 005F                      _RB0 0030  
                    _RB1 0031                      _RB2 0032                      _RB3 0033  
                    _RB4 0034                      _RD0 0040                      _RB5 0035  
                    _RD1 0041                      _RD2 0042                      _RD3 0043  
                    _RD4 0044                      _RD5 0045                      _RD7 0047  
                    _ISR 05DC                      _End 07F3                      _dat 03BD  
                    _cmd 0468                      _key 015D                      fsr0 0004  
                    indf 0000                     ?_ISR 0070                     ?_End 0070  
                   ISR@r 007C                     l2001 0719                     l2003 071A  
                   l2011 077C                     l2005 0729                     l2013 079A  
                   l2021 07BC                     l2007 0734                     l2015 07A5  
                   l2009 0738                     l2105 0208                     l2025 0168  
                   l2017 07A6                     l2201 0095                     l2115 021F  
                   l2107 020E                     l2035 017B                     l2027 016E  
                   l2019 07B4                     l2211 00BD                     l2203 009B  
                   l2125 0232                     l2117 0225                     l2109 0214  
                   l2045 018E                     l2037 0181                     l2029 0174  
                   l2221 00E2                     l2213 00C8                     l2205 00A1  
                   ?_dat 0070                     l2143 0256                     l2151 051F  
                   l2135 0245                     l2127 0238                     l2119 022B  
                   l2055 01A5                     l2047 0194                     l2039 0187  
                   l2231 0103                     l2223 00E7                     l2207 00AC  
                   l2215 00CF                     l2145 07F3                     l2161 056B  
                   l2153 052E                     l2137 024B                     l2129 023E  
                   l2065 01B8                     l2057 01AB                     l2049 019A  
                   l2241 012B                     l2233 010B                     l2225 00EC  
                   l2217 00D5                     l2209 00B7                     ?_cmd 0070  
                   l2147 02D5                     l2163 0576                     l2155 0539  
                   l2139 0251                     l2075 01CB                     l2067 01BE  
                   l2059 01B1                     l2235 0110                     l2227 00F2  
                   l2243 0136                     l2219 00DA                     l2171 0038  
                   l2165 02E9                     l2157 0544                     l2149 0516  
                   l2085 01E2                     l2077 01D1                     l2069 01C4  
                   l2245 013E                     l2237 011C                     l2229 00FE  
                   l2181 005B                     l2173 003D                     l2159 055E  
                   l2095 01F5                     l2087 01E8                     l2079 01D7  
                   l2247 0143                     l2239 0125                     l2191 006B  
                   l2183 0061                     l2175 0042                     l2167 0033  
                   l2097 01FB                     l2089 01EE                     l2249 0148  
                   l2193 0075                     l2185 0067                     l2177 0048  
                   l2169 0037                     l2099 0201                     l2195 007D  
                   l2179 0053                     l1901 05C2                     l2197 0085  
                   l1911 06E3                     l2199 0092                     l1913 06E7  
                   l1905 06C7                     l1907 06D6                     l1923 0279  
                   l1941 04C0                     l1933 046B                     l1909 06DC  
                   l1917 06F1                     l1925 027C                     l1951 0503  
                   l1943 04C3                     l1935 046C                     l1927 0286  
                   l1961 07E2                     l1953 050F                     l1945 04CD  
                   l1937 04B4                     l1929 0294                     l1955 07CD  
                   l1947 04DF                     l1939 04B5                     l1891 0582  
                   l1971 0415                     l1963 03C0                     l1957 07CE  
                   l1949 04F1                     l1893 0589                     l1981 0458  
                   l1973 0418                     l1965 03C1                     l1959 07DC  
                   l1991 0709                     l1895 058E                     l1983 0464  
                   l1975 0422                     l1967 0409                     l1993 0710  
                   l1897 0595                     l1985 02C8                     l1977 0434  
                   l1969 040A                     l1995 0712                     l1899 05A4  
                   l1987 02CA                     l1979 0446                     l1997 0713  
                   l1999 0716                     ?_key 0070                     STR_1 03A2  
                   STR_2 03A2                     STR_3 0372                     STR_4 0372  
                   STR_5 038F                     STR_6 0381                     STR_7 0331  
                   STR_8 037A                     STR_9 0388                     _BRGH 04C2  
                   _CREN 00C4                     u2200 058E                     u3000 0092  
                   u2201 058D                     u3001 0091                     u2210 05A4  
                   u3010 009B                     u2211 05A3                     u3011 009A  
                   u2220 05C2                     u3020 00D5                     u2221 05C1  
                   u3021 00D4                     u3005 008E                     u2230 06D6  
                   u3030 00E2                     u2231 06D5                     u3031 00E1  
                   u2400 04DC                     u2320 049F                     u2304 0490  
                   u2240 0294                     u3040 00E7                     u2401 04D8  
                   u2321 049B                     u2225 05BE                     u2241 0293  
                   u3041 00E6                     u3050 0103                     u2315 0493  
                   u3107 07A0                     u3051 0102                     u2260 047B  
                   u3060 013E                     u2261 0477                     u3117 0527  
                   u3061 013D                     u2430 04EE                     u2414 04DF  
                   u2350 04B1                     u2334 04A2                     u2190 0589  
                   u2510 03D0                     u2431 04EA                     u2351 04AD  
                   u2255 046F                     u3127 0557                     u2191 0588  
                   u2511 03CC                     u2600 0406                     u2425 04E2  
                   u3137 04BB                     u2345 04A5                     u2601 0402  
                   u2505 03C4                     u2370 04CA                     u2290 048D  
                   u2274 047E                     u3147 050A                     u2371 04C6  
                   u2291 0489                     u2460 0500                     u2444 04F1  
                   u2364 04B4                     u2620 041F                     u2540 03E2  
                   u2524 03D3                     u3157 0723                     u2461 04FC  
                   u2285 0481                     u2621 041B                     u2541 03DE  
                   u3077 00B2                     u2710 0455                     u2614 0409  
                   u3167 0740                     u2455 04F4                     u2711 0451  
                   u3087 0410                     u2535 03D6                     u2480 07DC  
                   u2384 04CD                     u2800 01A4                     u2481 07DB  
                   u2801 01A3                     u3097 045F                     u2705 0449  
                   u2490 07F2                     u2474 0503                     u2810 01B1  
                   u2650 0431                     u2634 0422                     u2570 03F4  
                   u2554 03E5                     u2730 07CC                     u2491 07F1  
                   u2395 04D0                     u2811 01B0                     u2651 042D  
                   u2571 03F0                     u2731 07CB                     u2900 0207  
                   u2820 01B7                     u2740 0167                     u2724 0458  
                   u2901 0206                     u2821 01B6                     u2741 0166  
                   u2645 0425                     u2565 03E8                     u2910 0214  
                   u2830 01C4                     u2750 0174                     u2911 0213  
                   u2831 01C3                     u2751 0173                     u2920 021E  
                   u2840 01CA                     u2760 017A                     u2680 0443  
                   u2664 0434                     u2584 03F7                     u2921 021D  
                   u2841 01C9                     u2761 0179                     u2681 043F  
                   u2930 022B                     u2850 01D7                     u2770 0187  
                   u2931 022A                     u2851 01D6                     u2771 0186  
                   u2675 0437                     u2595 03FA                     _PEIE 005E  
                   u2940 0231                     u2860 01E1                     u2780 018D  
                   u2941 0230                     u2861 01E0                     u2781 018C  
                   u2950 023E                     u2870 01EE                     u2790 019A  
                   u2694 0446                     u2951 023D                     u2871 01ED  
                   u2791 0199                     u2960 0244                     u2880 01F4  
                   u2961 0243                     u2881 01F3                     u2970 0251  
                   u2890 0201                     u2971 0250                     u2891 0200  
                   _RCIE 0465                     u2980 0061                     _RCIF 0065  
                   u2981 0060                     u2990 0067                     u2991 0066  
                   _SPEN 00C7                     _TXEN 04C5                     _TXIF 0064  
                   _SYNC 04C4                     _Call 0253                     _Init 0709  
                   _dbuf 00A0                     dat@a 0059                     cmd@a 0059  
                   _main 0033                     _prec 0022                     _show 07A5  
                   btemp 007E                     start 0012                    ??_ISR 0053  
                  ??_End 0059                    ??_dat 0057                    ??_cmd 0057  
                  ??_key 006A                    ?_Call 0070                    ?_Init 0070  
                  ?_main 0070                    STR_10 03AB                    STR_11 03B6  
                  STR_20 03A8                    STR_12 03AF                    STR_13 03A7  
                  STR_21 035E                    STR_30 03B9                    STR_14 0396  
                  STR_22 0310                    STR_31 03B9                    STR_15 039C  
                  STR_23 0368                    STR_32 03B9                    STR_24 0349  
                  STR_16 033E                    STR_33 03B9                    STR_17 0354  
                  STR_25 0322                    STR_34 03B9                    STR_18 03B3  
                  STR_35 03B9                    STR_19 03BB                    STR_27 03B9  
                  STR_36 03B9                    STR_28 03B9                    STR_37 03B9  
                  STR_29 03B9                    STR_38 03B9                    ?_show 005A  
                  i1l114 0621                    i1l115 0621                    i1l860 077B  
                  i1l881 02C4                    i1l873 06C3                    i1l892 067D  
                  i1l879 02AF                    i1l888 02AD                    _RCREG 001A  
           vfpfcnvrt@fmt 005F                    _SPBRG 0099                    _TRISB 0086  
                  _TRISD 0088                    _TXREG 0019                    _flags 0026  
                  _fputc 0582                    _width 0020                    _putch 07FF  
                  pclath 000A                    show@s 005A                    status 0003  
                  wtemp0 007E          __end_of_strncmp 067E             __end_of_Call 0276  
        __initialization 0015             __end_of_Init 0747            ??_SendCommand 0059  
           __end_of_main 015D             __end_of_show 07CD            ??_SendMessage 005A  
                 ??_Call 0059                   ??_Init 0059                   ??_main 006A  
                 ??_show 005C        __end_of_LCD_Clear 02F0                   ?_fputc 0057  
                 ?_putch 0070                   i1l1501 02A7                   i1l1511 0640  
                 i1l1521 0663                   i1l1513 0648                   i1l1505 062F  
                 i1l1523 066F                   i1l1507 063D                   i1l1515 064E  
                 i1l1541 0749                   i1l1533 02BA                   i1l1517 0656  
                 i1l1543 074D                   i1l1535 02C3                   i1l1527 02AF  
                 i1l1519 065D                   i1l1545 0751                   i1l1529 02B8  
                 i1l1553 067F                   i1l1547 0762                   i1l1539 0748  
                 i1l1563 06A3                   i1l1555 0684                   i1l1549 0769  
                 i1l1557 068F                   i1l1565 06B5                   i1l1495 0298  
                 i1l1567 06BA                   i1l1559 06A1                   i1l1497 029B  
                 i1l1569 06C2                   i1l1761 05E8                   i1l1499 029F  
                 i1l1771 060F                   i1l1763 05ED                   i1l1755 05DC  
                 i1l1765 05EF                   i1l1773 0614                   i1l1757 05E0  
                 i1l1775 061A                   i1l1767 05FD                   i1l1759 05E2  
                 i1l1769 0602                   u204_20 05E0                   u204_21 05DF  
                 u205_20 05E8                   u205_21 05E7                   u206_20 05FD  
                 u206_21 05FC                   u207_20 060F                   u207_21 060E  
                 u170_20 02B8                   u170_21 02B7                   u171_20 02C3  
                 u171_21 02C2                   u172_20 0762                   u164_20 02A7  
                 u172_21 0761                   u164_21 02A6                   u173_20 0769  
                 u165_20 063D                   u173_21 0768                   u165_21 063C  
                 u166_20 0656                   u174_20 0684                   u166_21 0655  
                 u174_21 0683                   u167_20 065D                   u175_20 06A1  
                 u167_21 065C                   u175_21 06A0                   u168_20 0663  
                 u176_20 06BA                   u168_21 0662                   u176_21 06B9  
                 u169_20 066F                   u177_20 06C2                   u169_21 066E  
                 u177_21 06C1                   _Answer 02D5             vfprintf@cfmt 0067  
       __end_of_lcd_init 07A5                   _printf 02C5                   _strchr 02AE  
                 _strcmp 0747                   _strlen 0297      __end_of_SendCommand 07F3  
                 _strstr 067E                   fputc@c 0057      __end_of_SendMessage 0582  
                 saved_w 007E                   putch@c 0070         __end_of_vfprintf 0297  
              ??_strncmp 0073  __end_of__initialization 002F           __pcstackCOMMON 0070  
          __end_of_fputc 05DC            __end_of_putch 0800                  ??_fputc 005A  
                ??_putch 0057               __pbssBANK0 0020               __pbssBANK1 00A0  
             __pbssBANK3 0190                  ?_Answer 0070               __pmaintext 0033  
            _SendCommand 07CD               __pintentry 0004              _SendMessage 0513  
                ?_printf 0070                  ?_strchr 0070                  ?_strcmp 0070  
                ?_strlen 0070          Call@phoneNumber 0059                  ?_strstr 0076  
     SendMessage@message 0059                ?_lcd_init 0070               __stringtab 0300  
              ?_vfprintf 0064                  __ptext1 07A5                  __ptext2 03BD  
                __ptext3 077C                  __ptext4 015D                  __ptext5 02C5  
                __ptext6 0276                  __ptext7 06C4                  __ptext8 0582  
                __ptext9 07FF                  _message 0028                _LCD_Clear 02E9  
                clrloop0 02E2               ??_lcd_init 005A                  _strncmp 062E  
   end_of_initialization 002F                  fputc@fp 0059       SendCommand@command 0057  
      __end_of_vfpfcnvrt 0709               ??_vfprintf 0066                  strchr@c 0070  
                strchr@s 0072                  strcmp@l 0074                  strcmp@r 0070  
                strlen@a 0072                  strlen@s 0073                  strstr@h 007B  
                strstr@n 0076               ?_LCD_Clear 0070           __end_of_Answer 02E1  
            vfpfcnvrt@ap 0060              vfpfcnvrt@fp 0063           __end_of_printf 02D5  
         __end_of_strchr 02C5           __end_of_strcmp 077C           __end_of_strlen 02AE  
         __end_of_strstr 06C4      start_initialization 0015              __end_of_ISR 062E  
            __end_of_End 07FF              __end_of_dat 0468              __end_of_cmd 0513  
            __end_of_key 0253                 ??_Answer 0059              vfprintf@fmt 0064  
           ?_SendCommand 0057             ?_SendMessage 0059                 ??_printf 0068  
               ??_strchr 0072                 ??_strcmp 0072                 ??_strlen 0072  
               ??_strstr 0077                ___latbits 0002            __pcstackBANK0 0053  
          __pcstackBANK1 00DE              ??_LCD_Clear 005A                __pstrings 0300  
               ?_strncmp 0070        interrupt_function 0004                clear_ram0 02E1  
              _vfpfcnvrt 06C4              __stringbase 030F                main@i_156 00DE  
             vfprintf@ap 0065               vfprintf@fp 0066               ?_vfpfcnvrt 005F  
     __end_of__stringtab 0310                 __ptext10 0513                 __ptext11 02E9  
               __ptext20 062E                 __ptext12 0468                 __ptext21 0297  
               __ptext13 0709                 __ptext22 02AE                 __ptext14 07F3  
               __ptext23 0747                 __ptext15 0253                 __ptext16 02D5  
               __ptext17 07CD                 __ptext18 05DC                 __ptext19 067E  
               _lcd_init 077C                 _incoming 0029                 _rxBuffer 0190  
               _vfprintf 0276                printf@fmt 0069                 intlevel1 0000  
            _phonenumber 0048                stringcode 030A                 printf@ap 0068  
            ??_vfpfcnvrt 0061                 strncmp@l 0075                 strncmp@n 0071  
               strncmp@r 0070                 stringdir 030A                 stringtab 0300  
               strstr@nl 0079   SendMessage@phoneNumber 005D  
